ARM Linker, 4.1 [Build 894] [Standard]

==============================================================================

Section Cross References

    application.o(.text) refers to heartbeat.o(.text) for nano_board_heartbeat_init
    application.o(.text) refers to bluetooth_4_0.o(.text) for nano_board_ble_init
    application.o(.text) refers to mpu9250_app.o(.text) for nano_board_mpu9250_app_init
    application.o(.text) refers to thread.o(.text) for rt_thread_create
    startup.o(.text) refers to kservice.o(.text) for rt_kprintf
    startup.o(.text) refers to board.o(.text) for rt_hw_board_init
    startup.o(.text) refers to clock.o(.text) for rt_system_tick_init
    startup.o(.text) refers to object.o(.text) for rt_system_object_init
    startup.o(.text) refers to timer.o(.text) for rt_system_timer_init
    startup.o(.text) refers to mem.o(.text) for rt_system_heap_init
    startup.o(.text) refers to scheduler.o(.text) for rt_system_scheduler_init
    startup.o(.text) refers to device.o(.text) for rt_device_init_all
    startup.o(.text) refers to application.o(.text) for rt_application_init
    startup.o(.text) refers to shell.o(.text) for finsh_system_init
    startup.o(.text) refers to idle.o(.text) for rt_thread_idle_init
    startup.o(.text) refers to context_rvds.o(.text) for rt_hw_interrupt_disable
    heartbeat.o(.text) refers to stm32f4xx_rcc.o(.text) for RCC_AHB1PeriphClockCmd
    heartbeat.o(.text) refers to stm32f4xx_gpio.o(.text) for GPIO_Init
    heartbeat.o(.text) refers to thread.o(.text) for rt_thread_delay
    heartbeat.o(.text) refers to heartbeat.o(.bss) for thread_heartbeat_stack
    bluetooth_4_0.o(.text) refers to ipc.o(.text) for rt_mq_send
    bluetooth_4_0.o(.text) refers to device.o(.text) for rt_device_read
    bluetooth_4_0.o(.text) refers to kservice.o(.text) for rt_kprintf
    bluetooth_4_0.o(.text) refers to thread.o(.text) for rt_thread_init
    bluetooth_4_0.o(.text) refers to bluetooth_4_0.o(.data) for ble_rx_mq
    bluetooth_4_0.o(.text) refers to bluetooth_4_0.o(.bss) for ble_rx_buff
    mpu9250_app.o(.text) refers to _printf_pad.o(.text) for _printf_pre_padding
    mpu9250_app.o(.text) refers to _printf_percent.o(.ARM.Collect$$_printf_percent$$00000000) for _printf_percent
    mpu9250_app.o(.text) refers to _printf_f.o(.ARM.Collect$$_printf_percent$$00000003) for _printf_f
    mpu9250_app.o(.text) refers to printf1.o(x$fpl$printf1) for _printf_fp_dec
    mpu9250_app.o(.text) refers to rt_memclr_w.o(.text) for __aeabi_memclr4
    mpu9250_app.o(.text) refers to mpu9250.o(.text) for MPU9250_Read
    mpu9250_app.o(.text) refers to datascope_dp.o(.text) for DataScope_Get_Channel_Data
    mpu9250_app.o(.text) refers to kalman_filter.o(.text) for kalman
    mpu9250_app.o(.text) refers to f2d.o(x$fpl$f2d) for __aeabi_f2d
    mpu9250_app.o(.text) refers to dmul.o(x$fpl$dmul) for __aeabi_dmul
    mpu9250_app.o(.text) refers to d2f.o(x$fpl$d2f) for __aeabi_d2f
    mpu9250_app.o(.text) refers to algorithm_ahrs.o(.text) for AHRS_Update
    mpu9250_app.o(.text) refers to thread.o(.text) for rt_thread_delay
    mpu9250_app.o(.text) refers to kservice.o(.text) for rt_kprintf
    mpu9250_app.o(.text) refers to noretval__2sprintf.o(.text) for __2sprintf
    mpu9250_app.o(.text) refers to mpu9250_app.o(.bss) for Acc
    mpu9250_app.o(.text) refers to mpu9250_app.o(.data) for Temp
    mpu9250_app.o(.text) refers to algorithm_quaternion.o(.bss) for AngE
    mpu9250_app.o(.text) refers to algorithm_quaternion.o(.data) for NumQ
    mpu9250_app.o(.text) refers to datascope_dp.o(.bss) for DataScope_OutPut_Buffer
    board.o(.text) refers to misc.o(.text) for NVIC_SetVectorTable
    board.o(.text) refers to stm32f4xx_rcc.o(.text) for RCC_GetClocksFreq
    board.o(.text) refers to irq.o(.text) for rt_interrupt_enter
    board.o(.text) refers to clock.o(.text) for rt_tick_increase
    board.o(.text) refers to usart.o(.text) for rt_hw_usart_init
    board.o(.text) refers to kservice.o(.text) for rt_console_set_device
    serial.o(.text) refers to kservice.o(.text) for rt_memset
    serial.o(.text) refers to mempool.o(.text) for rt_mp_init
    serial.o(.text) refers to stm32f4xx_usart.o(.text) for USART_Cmd
    serial.o(.text) refers to context_rvds.o(.text) for rt_hw_interrupt_disable
    serial.o(.text) refers to stm32f4xx_dma.o(.text) for DMA_Cmd
    serial.o(.text) refers to device.o(.text) for rt_device_register
    serial.o(.text) refers to serial.o(.constdata) for __FUNCTION__
    stm32f4xx_it.o(.text) refers to irq.o(.text) for rt_interrupt_enter
    stm32f4xx_it.o(.text) refers to serial.o(.text) for rt_hw_serial_isr
    stm32f4xx_it.o(.text) refers to usart.o(.bss) for uart1_device
    usart.o(.text) refers to stm32f4xx_rcc.o(.text) for RCC_AHB1PeriphClockCmd
    usart.o(.text) refers to stm32f4xx_gpio.o(.text) for GPIO_Init
    usart.o(.text) refers to misc.o(.text) for NVIC_Init
    usart.o(.text) refers to stm32f4xx_usart.o(.text) for USART_Init
    usart.o(.text) refers to serial.o(.text) for rt_hw_serial_register
    usart.o(.text) refers to usart.o(.data) for uart1
    usart.o(.text) refers to usart.o(.bss) for uart1_device
    usart.o(.data) refers to usart.o(.bss) for uart1_int_rx
    mpu9250.o(.text) refers to stm32f4xx_rcc.o(.text) for RCC_AHB1PeriphClockCmd
    mpu9250.o(.text) refers to stm32f4xx_gpio.o(.text) for GPIO_Init
    mpu9250.o(.text) refers to stm32f4xx_spi.o(.text) for SPI_Init
    mpu9250.o(.text) refers to kservice.o(.text) for rt_kprintf
    mpu9250.o(.text) refers to thread.o(.text) for rt_thread_delay
    mpu9250.o(.text) refers to rt_memcpy_w.o(.text) for __aeabi_memcpy4
    mpu9250.o(.text) refers to mpu9250.o(.constdata) for .constdata
    system_stm32f4xx.o(.text) refers to system_stm32f4xx.o(.data) for SystemCoreClock
    misc.o(.text) refers to startup.o(.text) for assert_failed
    stm32f4xx_adc.o(.text) refers to stm32f4xx_rcc.o(.text) for RCC_APB2PeriphResetCmd
    stm32f4xx_adc.o(.text) refers to startup.o(.text) for assert_failed
    stm32f4xx_dbgmcu.o(.text) refers to startup.o(.text) for assert_failed
    stm32f4xx_dma.o(.text) refers to startup.o(.text) for assert_failed
    stm32f4xx_exti.o(.text) refers to startup.o(.text) for assert_failed
    stm32f4xx_flash.o(.text) refers to startup.o(.text) for assert_failed
    stm32f4xx_gpio.o(.text) refers to startup.o(.text) for assert_failed
    stm32f4xx_gpio.o(.text) refers to stm32f4xx_rcc.o(.text) for RCC_AHB1PeriphResetCmd
    stm32f4xx_i2c.o(.text) refers to startup.o(.text) for assert_failed
    stm32f4xx_i2c.o(.text) refers to stm32f4xx_rcc.o(.text) for RCC_APB1PeriphResetCmd
    stm32f4xx_rcc.o(.text) refers to startup.o(.text) for assert_failed
    stm32f4xx_rcc.o(.text) refers to stm32f4xx_rcc.o(.data) for APBAHBPrescTable
    stm32f4xx_rng.o(.text) refers to stm32f4xx_rcc.o(.text) for RCC_AHB2PeriphResetCmd
    stm32f4xx_rng.o(.text) refers to startup.o(.text) for assert_failed
    stm32f4xx_rtc.o(.text) refers to startup.o(.text) for assert_failed
    stm32f4xx_spi.o(.text) refers to startup.o(.text) for assert_failed
    stm32f4xx_spi.o(.text) refers to stm32f4xx_rcc.o(.text) for RCC_APB2PeriphResetCmd
    stm32f4xx_syscfg.o(.text) refers to stm32f4xx_rcc.o(.text) for RCC_APB2PeriphResetCmd
    stm32f4xx_syscfg.o(.text) refers to startup.o(.text) for assert_failed
    stm32f4xx_tim.o(.text) refers to startup.o(.text) for assert_failed
    stm32f4xx_tim.o(.text) refers to stm32f4xx_rcc.o(.text) for RCC_APB2PeriphResetCmd
    stm32f4xx_usart.o(.text) refers to startup.o(.text) for assert_failed
    stm32f4xx_usart.o(.text) refers to stm32f4xx_rcc.o(.text) for RCC_APB2PeriphResetCmd
    startup_stm32f4xx.o(STACK) refers (Special) to heapauxi.o(.text) for __use_two_region_memory
    startup_stm32f4xx.o(HEAP) refers (Special) to heapauxi.o(.text) for __use_two_region_memory
    startup_stm32f4xx.o(RESET) refers (Special) to heapauxi.o(.text) for __use_two_region_memory
    startup_stm32f4xx.o(RESET) refers to startup_stm32f4xx.o(STACK) for __initial_sp
    startup_stm32f4xx.o(RESET) refers to startup_stm32f4xx.o(.text) for Reset_Handler
    startup_stm32f4xx.o(RESET) refers to stm32f4xx_it.o(.text) for NMI_Handler
    startup_stm32f4xx.o(RESET) refers to context_rvds.o(.text) for HardFault_Handler
    startup_stm32f4xx.o(RESET) refers to board.o(.text) for SysTick_Handler
    startup_stm32f4xx.o(.text) refers (Special) to heapauxi.o(.text) for __use_two_region_memory
    startup_stm32f4xx.o(.text) refers to system_stm32f4xx.o(.text) for SystemInit
    startup_stm32f4xx.o(.text) refers to __main.o(!!!main) for __main
    startup_stm32f4xx.o(.text) refers to startup_stm32f4xx.o(HEAP) for Heap_Mem
    startup_stm32f4xx.o(.text) refers to startup_stm32f4xx.o(STACK) for Stack_Mem
    clock.o(.text) refers to context_rvds.o(.text) for rt_hw_interrupt_disable
    clock.o(.text) refers to thread.o(.text) for rt_thread_self
    clock.o(.text) refers to timer.o(.text) for rt_timer_check
    clock.o(.text) refers to clock.o(.data) for rt_tick
    device.o(.text) refers to thread.o(.text) for rt_thread_self
    device.o(.text) refers to scheduler.o(.text) for rt_enter_critical
    device.o(.text) refers to kservice.o(.text) for rt_strncmp
    device.o(.text) refers to object.o(.text) for rt_object_init
    device.o(.text) refers to object.o(.data) for rt_object_container
    device.o(.text) refers to device.o(.constdata) for __FUNCTION__
    idle.o(.text) refers to context_rvds.o(.text) for rt_hw_interrupt_disable
    idle.o(.text) refers to irq.o(.text) for rt_interrupt_get_nest
    idle.o(.text) refers to kservice.o(.text) for rt_kprintf
    idle.o(.text) refers to object.o(.text) for rt_object_is_systemobject
    idle.o(.text) refers to mem.o(.text) for rt_free
    idle.o(.text) refers to thread.o(.text) for rt_thread_init
    idle.o(.text) refers to idle.o(.data) for rt_thread_idle_hook
    idle.o(.text) refers to idle.o(.constdata) for __FUNCTION__
    idle.o(.text) refers to scheduler.o(.data) for rt_thread_defunct
    idle.o(.text) refers to idle.o(.bss) for rt_thread_stack
    ipc.o(.text) refers to thread.o(.text) for rt_thread_suspend
    ipc.o(.text) refers to context_rvds.o(.text) for rt_hw_interrupt_disable
    ipc.o(.text) refers to kservice.o(.text) for rt_kprintf
    ipc.o(.text) refers to object.o(.text) for rt_object_init
    ipc.o(.text) refers to irq.o(.text) for rt_interrupt_get_nest
    ipc.o(.text) refers to timer.o(.text) for rt_timer_control
    ipc.o(.text) refers to scheduler.o(.text) for rt_schedule
    ipc.o(.text) refers to ipc.o(.constdata) for __FUNCTION__
    ipc.o(.text) refers to object.o(.data) for rt_object_trytake_hook
    ipc.o(.text) refers to mem.o(.text) for rt_malloc
    ipc.o(.text) refers to clock.o(.text) for rt_tick_get
    irq.o(.text) refers to context_rvds.o(.text) for rt_hw_interrupt_disable
    irq.o(.text) refers to irq.o(.data) for rt_interrupt_nest
    kservice.o(.text) refers to irq.o(.text) for rt_interrupt_get_nest
    kservice.o(.text) refers to thread.o(.text) for rt_thread_self
    kservice.o(.text) refers to mem.o(.text) for rt_malloc
    kservice.o(.text) refers to kservice.o(.data) for _errno
    kservice.o(.text) refers to kservice.o(.constdata) for large_digits
    kservice.o(.text) refers to device.o(.text) for rt_device_write
    kservice.o(.text) refers to kservice.o(.bss) for rt_log_buf
    mem.o(.text) refers to kservice.o(.text) for rt_kprintf
    mem.o(.text) refers to context_rvds.o(.text) for rt_hw_interrupt_disable
    mem.o(.text) refers to irq.o(.text) for rt_interrupt_get_nest
    mem.o(.text) refers to ipc.o(.text) for rt_sem_init
    mem.o(.text) refers to mem.o(.data) for rt_malloc_hook
    mem.o(.text) refers to mem.o(.constdata) for __FUNCTION__
    mem.o(.text) refers to mem.o(.bss) for heap_sem
    mem.o(FSymTab) refers to mem.o(.constdata) for __fsym_list_mem_name
    mem.o(FSymTab) refers to mem.o(.text) for list_mem
    mempool.o(.text) refers to kservice.o(.text) for rt_kprintf
    mempool.o(.text) refers to object.o(.text) for rt_object_init
    mempool.o(.text) refers to context_rvds.o(.text) for rt_hw_interrupt_disable
    mempool.o(.text) refers to thread.o(.text) for rt_thread_resume
    mempool.o(.text) refers to irq.o(.text) for rt_interrupt_get_nest
    mempool.o(.text) refers to mem.o(.text) for rt_malloc
    mempool.o(.text) refers to timer.o(.text) for rt_timer_control
    mempool.o(.text) refers to scheduler.o(.text) for rt_schedule
    mempool.o(.text) refers to mempool.o(.data) for rt_mp_alloc_hook
    mempool.o(.text) refers to mempool.o(.constdata) for __FUNCTION__
    object.o(.text) refers to kservice.o(.text) for rt_strncpy
    object.o(.text) refers to context_rvds.o(.text) for rt_hw_interrupt_disable
    object.o(.text) refers to irq.o(.text) for rt_interrupt_get_nest
    object.o(.text) refers to mem.o(.text) for rt_malloc
    object.o(.text) refers to scheduler.o(.text) for rt_enter_critical
    object.o(.text) refers to object.o(.data) for rt_object_attach_hook
    object.o(.text) refers to object.o(.constdata) for __FUNCTION__
    object.o(.text) refers to irq.o(.data) for rt_interrupt_nest
    scheduler.o(.text) refers to kservice.o(.text) for rt_kprintf
    scheduler.o(.text) refers to cmd.o(.text) for list_thread
    scheduler.o(.text) refers to context_rvds.o(.text) for rt_hw_interrupt_disable
    scheduler.o(.text) refers to scheduler.o(.data) for rt_scheduler_hook
    scheduler.o(.text) refers to scheduler.o(.constdata) for __FUNCTION__
    scheduler.o(.text) refers to scheduler.o(.bss) for rt_thread_priority_table
    scheduler.o(.text) refers to irq.o(.data) for rt_interrupt_nest
    thread.o(.text) refers to context_rvds.o(.text) for rt_hw_interrupt_disable
    thread.o(.text) refers to scheduler.o(.text) for rt_schedule_remove_thread
    thread.o(.text) refers to timer.o(.text) for rt_timer_detach
    thread.o(.text) refers to object.o(.text) for rt_object_is_systemobject
    thread.o(.text) refers to kservice.o(.text) for rt_kprintf
    thread.o(.text) refers to cpuport.o(.text) for rt_hw_stack_init
    thread.o(.text) refers to mem.o(.text) for rt_malloc
    thread.o(.text) refers to scheduler.o(.data) for rt_current_thread
    thread.o(.text) refers to thread.o(.constdata) for __FUNCTION__
    thread.o(.text) refers to scheduler.o(.bss) for rt_thread_priority_table
    thread.o(.text) refers to object.o(.data) for rt_object_container
    timer.o(.text) refers to kservice.o(.text) for rt_kprintf
    timer.o(.text) refers to object.o(.text) for rt_object_init
    timer.o(.text) refers to context_rvds.o(.text) for rt_hw_interrupt_disable
    timer.o(.text) refers to clock.o(.text) for rt_tick_get
    timer.o(.text) refers to timer.o(.data) for rt_timer_timeout_hook
    timer.o(.text) refers to timer.o(.constdata) for __FUNCTION__
    timer.o(.text) refers to object.o(.data) for rt_object_take_hook
    cpuport.o(.text) refers to kservice.o(.text) for rt_kprintf
    cpuport.o(.text) refers to thread.o(.text) for rt_thread_self
    cpuport.o(.text) refers to cmd.o(.text) for list_thread
    cpuport.o(.text) refers to cpuport.o(.data) for rt_exception_hook
    cpuport.o(.text) refers to cpuport.o(.constdata) for __FUNCTION__
    context_rvds.o(.text) refers to cpuport.o(.text) for rt_hw_hard_fault_exception
    context_rvds.o(.text) refers to cpuport.o(.data) for rt_thread_switch_interrupt_flag
    showmem.o(.text) refers to kservice.o(.text) for rt_kprintf
    showmem.o(.text) refers to showmem.o(.constdata) for __FUNCTION__
    cmd.o(.text) refers to kservice.o(.text) for rt_kprintf
    cmd.o(.text) refers to cmd.o(.constdata) for .constdata
    cmd.o(.text) refers to object.o(.data) for rt_object_container
    cmd.o(.text) refers to clock.o(.text) for rt_tick_get
    cmd.o(.text) refers to rt_memcpy_w.o(.text) for __aeabi_memcpy4
    cmd.o(.text) refers to strncmp.o(.text) for strncmp
    cmd.o(.text) refers to strlen.o(.text) for strlen
    cmd.o(.text) refers to symbol.o(.data) for _syscall_table_begin
    cmd.o(.text) refers to finsh_vm.o(.data) for global_syscall_list
    cmd.o(.text) refers to finsh_var.o(.data) for global_sysvar_list
    cmd.o(.constdata) refers to cmd.o(.conststring) for .conststring
    cmd.o(FSymTab) refers to cmd.o(.constdata) for __fsym_hello_name
    cmd.o(FSymTab) refers to cmd.o(.text) for hello
    cmd.o(VSymTab) refers to cmd.o(.constdata) for __vsym_dummy_name
    cmd.o(VSymTab) refers to cmd.o(.data) for dummy
    finsh_compiler.o(.text) refers to finsh_compiler.o(.data) for finsh_compile_pc
    finsh_compiler.o(.text) refers to finsh_error.o(.text) for finsh_error_set
    finsh_compiler.o(.text) refers to rt_memclr.o(.text) for __aeabi_memclr
    finsh_compiler.o(.text) refers to finsh_vm.o(.bss) for text_segment
    finsh_error.o(.text) refers to finsh_error.o(.data) for global_errno
    finsh_error.o(.data) refers to finsh_error.o(.conststring) for .conststring
    finsh_heap.o(.text) refers to rt_memclr_w.o(.text) for __aeabi_memclr4
    finsh_heap.o(.text) refers to finsh_heap.o(.bss) for finsh_heap
    finsh_heap.o(.text) refers to finsh_heap.o(.data) for free_list
    finsh_heap.o(.text) refers to finsh_var.o(.bss) for global_variable
    finsh_init.o(.text) refers to finsh_parser.o(.text) for finsh_parser_init
    finsh_init.o(.text) refers to finsh_node.o(.text) for finsh_node_init
    finsh_init.o(.text) refers to finsh_var.o(.text) for finsh_var_init
    finsh_init.o(.text) refers to finsh_error.o(.text) for finsh_error_init
    finsh_init.o(.text) refers to finsh_heap.o(.text) for finsh_heap_init
    finsh_init.o(.text) refers to finsh_vm.o(.bss) for finsh_vm_stack
    finsh_node.o(.text) refers to rt_memclr_w.o(.text) for __aeabi_memclr4
    finsh_node.o(.text) refers to finsh_var.o(.text) for finsh_var_lookup
    finsh_node.o(.text) refers to finsh_vm.o(.text) for finsh_syscall_lookup
    finsh_node.o(.text) refers to finsh_error.o(.text) for finsh_error_set
    finsh_node.o(.text) refers to strlen.o(.text) for strlen
    finsh_node.o(.text) refers to finsh_heap.o(.text) for finsh_heap_allocate
    finsh_node.o(.text) refers to strncpy.o(.text) for strncpy
    finsh_node.o(.text) refers to finsh_node.o(.bss) for global_node_table
    finsh_ops.o(.text) refers to finsh_vm.o(.data) for finsh_sp
    finsh_ops.o(.constdata) refers to finsh_ops.o(.text) for OP_no_op
    finsh_parser.o(.text) refers to finsh_node.o(.text) for finsh_node_allocate
    finsh_parser.o(.text) refers to finsh_error.o(.text) for finsh_error_set
    finsh_parser.o(.text) refers to finsh_token.o(.text) for finsh_token_token
    finsh_parser.o(.text) refers to strncpy.o(.text) for strncpy
    finsh_parser.o(.text) refers to finsh_var.o(.text) for finsh_var_insert
    finsh_parser.o(.text) refers to rt_memclr_w.o(.text) for __aeabi_memclr4
    finsh_token.o(.text) refers to rt_memclr_w.o(.text) for __aeabi_memclr4
    finsh_token.o(.text) refers to strlen.o(.text) for strlen
    finsh_token.o(.text) refers to finsh_error.o(.text) for finsh_error_set
    finsh_token.o(.text) refers to atoi.o(.text) for atoi
    finsh_token.o(.text) refers to strcmpv7m.o(.text) for strcmp
    finsh_token.o(.text) refers to strncpy.o(.text) for strncpy
    finsh_token.o(.text) refers to finsh_token.o(.constdata) for finsh_name_table
    finsh_token.o(.constdata) refers to finsh_token.o(.conststring) for .conststring
    finsh_var.o(.text) refers to rt_memclr_w.o(.text) for __aeabi_memclr4
    finsh_var.o(.text) refers to strncmp.o(.text) for strncmp
    finsh_var.o(.text) refers to strncpy.o(.text) for strncpy
    finsh_var.o(.text) refers to mem.o(.text) for rt_malloc
    finsh_var.o(.text) refers to kservice.o(.text) for rt_strdup
    finsh_var.o(.text) refers to strcmpv7m.o(.text) for strcmp
    finsh_var.o(.text) refers to strlen.o(.text) for strlen
    finsh_var.o(.text) refers to finsh_var.o(.bss) for global_variable
    finsh_var.o(.text) refers to finsh_var.o(.data) for global_sysvar_list
    finsh_var.o(.text) refers to symbol.o(.data) for _sysvar_table_begin
    finsh_vm.o(.text) refers to mem.o(.text) for rt_malloc
    finsh_vm.o(.text) refers to kservice.o(.text) for rt_strdup
    finsh_vm.o(.text) refers to strcmpv7m.o(.text) for strcmp
    finsh_vm.o(.text) refers to strlen.o(.text) for strlen
    finsh_vm.o(.text) refers to strncmp.o(.text) for strncmp
    finsh_vm.o(.text) refers to finsh_vm.o(.bss) for finsh_vm_stack
    finsh_vm.o(.text) refers to finsh_vm.o(.data) for finsh_sp
    finsh_vm.o(.text) refers to finsh_ops.o(.constdata) for op_table
    finsh_vm.o(.text) refers to symbol.o(.data) for _syscall_table_begin
    shell.o(.text) refers to kservice.o(.text) for rt_kprintf
    shell.o(.text) refers to ipc.o(.text) for rt_sem_release
    shell.o(.text) refers to device.o(.text) for rt_device_find
    shell.o(.text) refers to cmd.o(.text) for list_prefix
    shell.o(.text) refers to finsh_parser.o(.text) for finsh_parser_run
    shell.o(.text) refers to finsh_error.o(.text) for finsh_errno
    shell.o(.text) refers to finsh_compiler.o(.text) for finsh_compiler_run
    shell.o(.text) refers to finsh_vm.o(.text) for finsh_vm_run
    shell.o(.text) refers to finsh_init.o(.text) for finsh_stack_bottom
    shell.o(.text) refers to rt_memcpy_v6.o(.text) for __aeabi_memcpy
    shell.o(.text) refers to rt_memclr.o(.text) for __aeabi_memclr
    shell.o(.text) refers to strlen.o(.text) for strlen
    shell.o(.text) refers to shell.o(.data) for shell
    shell.o(.text) refers to shell.o(.constdata) for __FUNCTION__
    shell.o(.text) refers to rt_memclr_w.o(.text) for __aeabi_memclr4
    shell.o(.text) refers to mem.o(.text) for rt_malloc
    shell.o(.text) refers to thread.o(.text) for rt_thread_init
    shell.o(.text) refers to symbol.o(.data) for _syscall_table_begin
    shell.o(.text) refers to shell.o(.bss) for finsh_thread_stack
    datascope_dp.o(.text) refers to datascope_dp.o(.bss) for DataScope_OutPut_Buffer
    algorithm_ahrs.o(.text) refers to sqrtf.o(i.__hardfp_sqrtf) for __hardfp_sqrtf
    algorithm_ahrs.o(.text) refers to algorithm_quaternion.o(.text) for Quaternion_RungeKutta
    algorithm_ahrs.o(.text) refers to algorithm_quaternion.o(.data) for NumQ
    algorithm_ahrs.o(.text) refers to mpu9250_app.o(.bss) for Acc
    algorithm_ahrs.o(.text) refers to algorithm_ahrs.o(.data) for exInt
    algorithm_ahrs.o(.text) refers to algorithm_quaternion.o(.bss) for AngE
    algorithm_quaternion.o(.text) refers to sinf.o(i.__hardfp_sinf) for __hardfp_sinf
    algorithm_quaternion.o(.text) refers to cosf.o(i.__hardfp_cosf) for __hardfp_cosf
    algorithm_quaternion.o(.text) refers to asinf.o(i.__hardfp_asinf) for __hardfp_asinf
    algorithm_quaternion.o(.text) refers to atan2f.o(i.__hardfp_atan2f) for __hardfp_atan2f
    algorithm_quaternion.o(.text) refers to sqrtf.o(i.__hardfp_sqrtf) for __hardfp_sqrtf
    kalman_filter.o(.text) refers to dflt_clz.o(x$fpl$dflt) for __aeabi_i2d
    kalman_filter.o(.text) refers to f2d.o(x$fpl$f2d) for __aeabi_f2d
    kalman_filter.o(.text) refers to daddsub_clz.o(x$fpl$dadd) for __aeabi_dadd
    kalman_filter.o(.text) refers to ddiv.o(x$fpl$ddiv) for __aeabi_ddiv
    kalman_filter.o(.text) refers to daddsub_clz.o(x$fpl$dsub) for __aeabi_dsub
    kalman_filter.o(.text) refers to dmul.o(x$fpl$dmul) for __aeabi_dmul
    kalman_filter.o(.text) refers to dfix.o(x$fpl$dfix) for __aeabi_d2iz
    kalman_filter.o(.text) refers to d2f.o(x$fpl$d2f) for __aeabi_d2f
    kalman_filter.o(.text) refers to kalman_filter.o(.data) for P
    __2sprintf.o(.text) refers to _printf_char_common.o(.text) for _printf_char_common
    __2sprintf.o(.text) refers to _sputc.o(.text) for _sputc
    noretval__2sprintf.o(.text) refers to _printf_char_common.o(.text) for _printf_char_common
    noretval__2sprintf.o(.text) refers to _sputc.o(.text) for _sputc
    __printf.o(.text) refers to _printf_percent.o(.ARM.Collect$$_printf_percent$$00000000) for _printf_percent
    __printf_flags.o(.text) refers to _printf_percent.o(.ARM.Collect$$_printf_percent$$00000000) for _printf_percent
    __printf_flags.o(.text) refers to __printf_flags.o(.constdata) for .constdata
    __printf_ss.o(.text) refers to _printf_percent.o(.ARM.Collect$$_printf_percent$$00000000) for _printf_percent
    __printf_flags_ss.o(.text) refers to _printf_percent.o(.ARM.Collect$$_printf_percent$$00000000) for _printf_percent
    __printf_flags_ss.o(.text) refers to __printf_flags_ss.o(.constdata) for .constdata
    __printf_wp.o(.text) refers to __printf_wp.o(i._is_digit) for _is_digit
    __printf_wp.o(.text) refers to _printf_percent.o(.ARM.Collect$$_printf_percent$$00000000) for _printf_percent
    __printf_flags_wp.o(.text) refers to __printf_wp.o(i._is_digit) for _is_digit
    __printf_flags_wp.o(.text) refers to _printf_percent.o(.ARM.Collect$$_printf_percent$$00000000) for _printf_percent
    __printf_flags_wp.o(.text) refers to __printf_flags_wp.o(.constdata) for .constdata
    __printf_ss_wp.o(.text) refers to __printf_wp.o(i._is_digit) for _is_digit
    __printf_ss_wp.o(.text) refers to _printf_percent.o(.ARM.Collect$$_printf_percent$$00000000) for _printf_percent
    __printf_flags_ss_wp.o(.text) refers to __printf_wp.o(i._is_digit) for _is_digit
    __printf_flags_ss_wp.o(.text) refers to _printf_percent.o(.ARM.Collect$$_printf_percent$$00000000) for _printf_percent
    __printf_flags_ss_wp.o(.text) refers to __printf_flags_ss_wp.o(.constdata) for .constdata
    _printf_f.o(.ARM.Collect$$_printf_percent$$00000003) refers (Weak) to printf1.o(x$fpl$printf1) for _printf_fp_dec
    _printf_percent.o(.ARM.Collect$$_printf_percent$$00000000) refers (Special) to _printf_percent_end.o(.ARM.Collect$$_printf_percent$$00000017) for _printf_percent_end
    atoi.o(.text) refers to rt_errno_addr_intlibspace.o(.text) for __aeabi_errno_addr
    atoi.o(.text) refers to strtol.o(.text) for strtol
    rt_memcpy_v6.o(.text) refers to rt_memcpy_w.o(.text) for __aeabi_memcpy4
    rt_memclr.o(.text) refers to rt_memclr_w.o(.text) for _memset_w
    strncpy.o(.text) refers to rt_memclr.o(.text) for __aeabi_memclr
    __main.o(!!!main) refers to rtentry.o(.ARM.Collect$$rtentry$$00000000) for __rt_entry
    d2f.o(x$fpl$d2f) refers (Special) to usenofp.o(x$fpl$usenofp) for __I$use$fp
    d2f.o(x$fpl$d2f) refers to fretinf.o(x$fpl$fretinf) for __fpl_fretinf
    d2f.o(x$fpl$d2f) refers to dnaninf.o(x$fpl$dnaninf) for __fpl_dnaninf
    daddsub_clz.o(x$fpl$dadd) refers (Special) to usenofp.o(x$fpl$usenofp) for __I$use$fp
    daddsub_clz.o(x$fpl$dadd) refers to daddsub_clz.o(x$fpl$dsub) for _dsub1
    daddsub_clz.o(x$fpl$dadd) refers to dretinf.o(x$fpl$dretinf) for __fpl_dretinf
    daddsub_clz.o(x$fpl$dadd) refers to dnaninf.o(x$fpl$dnaninf) for __fpl_dnaninf
    daddsub_clz.o(x$fpl$drsb) refers (Special) to usenofp.o(x$fpl$usenofp) for __I$use$fp
    daddsub_clz.o(x$fpl$drsb) refers to daddsub_clz.o(x$fpl$dadd) for _dadd1
    daddsub_clz.o(x$fpl$drsb) refers to daddsub_clz.o(x$fpl$dsub) for _dsub1
    daddsub_clz.o(x$fpl$dsub) refers (Special) to usenofp.o(x$fpl$usenofp) for __I$use$fp
    daddsub_clz.o(x$fpl$dsub) refers to daddsub_clz.o(x$fpl$dadd) for _dadd1
    daddsub_clz.o(x$fpl$dsub) refers to dnaninf.o(x$fpl$dnaninf) for __fpl_dnaninf
    ddiv.o(x$fpl$drdiv) refers (Special) to usenofp.o(x$fpl$usenofp) for __I$use$fp
    ddiv.o(x$fpl$drdiv) refers to ddiv.o(x$fpl$ddiv) for ddiv_entry
    ddiv.o(x$fpl$ddiv) refers (Special) to usenofp.o(x$fpl$usenofp) for __I$use$fp
    ddiv.o(x$fpl$ddiv) refers to dretinf.o(x$fpl$dretinf) for __fpl_dretinf
    ddiv.o(x$fpl$ddiv) refers to dnaninf.o(x$fpl$dnaninf) for __fpl_dnaninf
    dfix.o(x$fpl$dfix) refers (Special) to usenofp.o(x$fpl$usenofp) for __I$use$fp
    dfix.o(x$fpl$dfix) refers to dnaninf.o(x$fpl$dnaninf) for __fpl_dnaninf
    dfix.o(x$fpl$dfixr) refers (Special) to usenofp.o(x$fpl$usenofp) for __I$use$fp
    dfix.o(x$fpl$dfixr) refers to dnaninf.o(x$fpl$dnaninf) for __fpl_dnaninf
    dflt_clz.o(x$fpl$dfltu) refers (Special) to usenofp.o(x$fpl$usenofp) for __I$use$fp
    dflt_clz.o(x$fpl$dflt) refers (Special) to usenofp.o(x$fpl$usenofp) for __I$use$fp
    dflt_clz.o(x$fpl$dfltn) refers (Special) to usenofp.o(x$fpl$usenofp) for __I$use$fp
    dmul.o(x$fpl$dmul) refers (Special) to usenofp.o(x$fpl$usenofp) for __I$use$fp
    dmul.o(x$fpl$dmul) refers to dretinf.o(x$fpl$dretinf) for __fpl_dretinf
    dmul.o(x$fpl$dmul) refers to dnaninf.o(x$fpl$dnaninf) for __fpl_dnaninf
    f2d.o(x$fpl$f2d) refers (Special) to usenofp.o(x$fpl$usenofp) for __I$use$fp
    f2d.o(x$fpl$f2d) refers to fnaninf.o(x$fpl$fnaninf) for __fpl_fnaninf
    f2d.o(x$fpl$f2d) refers to dretinf.o(x$fpl$dretinf) for __fpl_dretinf
    printf1.o(x$fpl$printf1) refers to _printf_fp_dec.o(.text) for _printf_fp_dec_real
    asinf.o(i.__hardfp_asinf) refers (Special) to usenofp.o(x$fpl$usenofp) for __I$use$fp
    asinf.o(i.__hardfp_asinf) refers to fpclassifyf.o(i.__ARM_fpclassifyf) for __ARM_fpclassifyf
    asinf.o(i.__hardfp_asinf) refers to funder.o(i.__mathlib_flt_underflow) for __mathlib_flt_underflow
    asinf.o(i.__hardfp_asinf) refers to _rserrno.o(.text) for __set_errno
    asinf.o(i.__hardfp_asinf) refers to sqrtf.o(i.sqrtf) for sqrtf
    asinf.o(i.__softfp_asinf) refers (Special) to usenofp.o(x$fpl$usenofp) for __I$use$fp
    asinf.o(i.__softfp_asinf) refers to asinf.o(i.__hardfp_asinf) for __hardfp_asinf
    asinf.o(i.asinf) refers (Special) to usenofp.o(x$fpl$usenofp) for __I$use$fp
    asinf.o(i.asinf) refers to asinf.o(i.__hardfp_asinf) for __hardfp_asinf
    asinf_x.o(i.____hardfp_asinf$lsc) refers (Special) to usenofp.o(x$fpl$usenofp) for __I$use$fp
    asinf_x.o(i.____hardfp_asinf$lsc) refers to _rserrno.o(.text) for __set_errno
    asinf_x.o(i.____hardfp_asinf$lsc) refers to sqrtf.o(i.sqrtf) for sqrtf
    asinf_x.o(i.____softfp_asinf$lsc) refers (Special) to usenofp.o(x$fpl$usenofp) for __I$use$fp
    asinf_x.o(i.____softfp_asinf$lsc) refers to asinf_x.o(i.____hardfp_asinf$lsc) for ____hardfp_asinf$lsc
    asinf_x.o(i.__asinf$lsc) refers (Special) to usenofp.o(x$fpl$usenofp) for __I$use$fp
    asinf_x.o(i.__asinf$lsc) refers to asinf_x.o(i.____hardfp_asinf$lsc) for ____hardfp_asinf$lsc
    atan2f.o(i.__hardfp_atan2f) refers (Special) to usenofp.o(x$fpl$usenofp) for __I$use$fp
    atan2f.o(i.__hardfp_atan2f) refers to fpclassifyf.o(i.__ARM_fpclassifyf) for __ARM_fpclassifyf
    atan2f.o(i.__hardfp_atan2f) refers to funder.o(i.__mathlib_flt_underflow) for __mathlib_flt_underflow
    atan2f.o(i.__softfp_atan2f) refers (Special) to usenofp.o(x$fpl$usenofp) for __I$use$fp
    atan2f.o(i.__softfp_atan2f) refers to atan2f.o(i.__hardfp_atan2f) for __hardfp_atan2f
    atan2f.o(i.atan2f) refers (Special) to usenofp.o(x$fpl$usenofp) for __I$use$fp
    atan2f.o(i.atan2f) refers to atan2f.o(i.__hardfp_atan2f) for __hardfp_atan2f
    atan2f_x.o(i.____hardfp_atan2f$lsc) refers (Special) to usenofp.o(x$fpl$usenofp) for __I$use$fp
    atan2f_x.o(i.____hardfp_atan2f$lsc) refers to _rserrno.o(.text) for __set_errno
    atan2f_x.o(i.____softfp_atan2f$lsc) refers (Special) to usenofp.o(x$fpl$usenofp) for __I$use$fp
    atan2f_x.o(i.____softfp_atan2f$lsc) refers to atan2f_x.o(i.____hardfp_atan2f$lsc) for ____hardfp_atan2f$lsc
    atan2f_x.o(i.__atan2f$lsc) refers (Special) to usenofp.o(x$fpl$usenofp) for __I$use$fp
    atan2f_x.o(i.__atan2f$lsc) refers to atan2f_x.o(i.____hardfp_atan2f$lsc) for ____hardfp_atan2f$lsc
    cosf.o(i.__hardfp_cosf) refers (Special) to usenofp.o(x$fpl$usenofp) for __I$use$fp
    cosf.o(i.__hardfp_cosf) refers to rredf.o(i.__mathlib_rredf2) for __mathlib_rredf2
    cosf.o(i.__hardfp_cosf) refers to _rserrno.o(.text) for __set_errno
    cosf.o(i.__softfp_cosf) refers (Special) to usenofp.o(x$fpl$usenofp) for __I$use$fp
    cosf.o(i.__softfp_cosf) refers to cosf.o(i.__hardfp_cosf) for __hardfp_cosf
    cosf.o(i.cosf) refers (Special) to usenofp.o(x$fpl$usenofp) for __I$use$fp
    cosf.o(i.cosf) refers to cosf.o(i.__hardfp_cosf) for __hardfp_cosf
    cosf_x.o(i.____hardfp_cosf$lsc) refers (Special) to usenofp.o(x$fpl$usenofp) for __I$use$fp
    cosf_x.o(i.____hardfp_cosf$lsc) refers to rredf.o(i.__mathlib_rredf2) for __mathlib_rredf2
    cosf_x.o(i.____hardfp_cosf$lsc) refers to _rserrno.o(.text) for __set_errno
    cosf_x.o(i.____softfp_cosf$lsc) refers (Special) to usenofp.o(x$fpl$usenofp) for __I$use$fp
    cosf_x.o(i.____softfp_cosf$lsc) refers to cosf_x.o(i.____hardfp_cosf$lsc) for ____hardfp_cosf$lsc
    cosf_x.o(i.__cosf$lsc) refers (Special) to usenofp.o(x$fpl$usenofp) for __I$use$fp
    cosf_x.o(i.__cosf$lsc) refers to cosf_x.o(i.____hardfp_cosf$lsc) for ____hardfp_cosf$lsc
    sinf.o(i.__hardfp_sinf) refers (Special) to usenofp.o(x$fpl$usenofp) for __I$use$fp
    sinf.o(i.__hardfp_sinf) refers to rredf.o(i.__mathlib_rredf2) for __mathlib_rredf2
    sinf.o(i.__hardfp_sinf) refers to fpclassifyf.o(i.__ARM_fpclassifyf) for __ARM_fpclassifyf
    sinf.o(i.__hardfp_sinf) refers to funder.o(i.__mathlib_flt_underflow) for __mathlib_flt_underflow
    sinf.o(i.__hardfp_sinf) refers to _rserrno.o(.text) for __set_errno
    sinf.o(i.__softfp_sinf) refers (Special) to usenofp.o(x$fpl$usenofp) for __I$use$fp
    sinf.o(i.__softfp_sinf) refers to sinf.o(i.__hardfp_sinf) for __hardfp_sinf
    sinf.o(i.sinf) refers (Special) to usenofp.o(x$fpl$usenofp) for __I$use$fp
    sinf.o(i.sinf) refers to sinf.o(i.__hardfp_sinf) for __hardfp_sinf
    sinf_x.o(i.____hardfp_sinf$lsc) refers (Special) to usenofp.o(x$fpl$usenofp) for __I$use$fp
    sinf_x.o(i.____hardfp_sinf$lsc) refers to rredf.o(i.__mathlib_rredf2) for __mathlib_rredf2
    sinf_x.o(i.____hardfp_sinf$lsc) refers to _rserrno.o(.text) for __set_errno
    sinf_x.o(i.____softfp_sinf$lsc) refers (Special) to usenofp.o(x$fpl$usenofp) for __I$use$fp
    sinf_x.o(i.____softfp_sinf$lsc) refers to sinf_x.o(i.____hardfp_sinf$lsc) for ____hardfp_sinf$lsc
    sinf_x.o(i.__sinf$lsc) refers (Special) to usenofp.o(x$fpl$usenofp) for __I$use$fp
    sinf_x.o(i.__sinf$lsc) refers to sinf_x.o(i.____hardfp_sinf$lsc) for ____hardfp_sinf$lsc
    sqrtf.o(i.__hardfp_sqrtf) refers (Special) to usenofp.o(x$fpl$usenofp) for __I$use$fp
    sqrtf.o(i.__hardfp_sqrtf) refers to _rserrno.o(.text) for __set_errno
    sqrtf.o(i.__softfp_sqrtf) refers (Special) to usenofp.o(x$fpl$usenofp) for __I$use$fp
    sqrtf.o(i.__softfp_sqrtf) refers to _rserrno.o(.text) for __set_errno
    sqrtf.o(i.sqrtf) refers (Special) to usenofp.o(x$fpl$usenofp) for __I$use$fp
    sqrtf.o(i.sqrtf) refers to _rserrno.o(.text) for __set_errno
    sqrtf_x.o(i.____hardfp_sqrtf$lsc) refers (Special) to usenofp.o(x$fpl$usenofp) for __I$use$fp
    sqrtf_x.o(i.____hardfp_sqrtf$lsc) refers to _rserrno.o(.text) for __set_errno
    sqrtf_x.o(i.____softfp_sqrtf$lsc) refers (Special) to usenofp.o(x$fpl$usenofp) for __I$use$fp
    sqrtf_x.o(i.____softfp_sqrtf$lsc) refers to _rserrno.o(.text) for __set_errno
    sqrtf_x.o(i.__sqrtf$lsc) refers (Special) to usenofp.o(x$fpl$usenofp) for __I$use$fp
    sqrtf_x.o(i.__sqrtf$lsc) refers to _rserrno.o(.text) for __set_errno
    rtentry.o(.ARM.Collect$$rtentry$$00000000) refers (Special) to rtentry2.o(.ARM.Collect$$rtentry$$0000000A) for __rt_entry_li
    rtentry.o(.ARM.Collect$$rtentry$$00000000) refers (Special) to rtentry2.o(.ARM.Collect$$rtentry$$0000000D) for __rt_entry_main
    rtentry.o(.ARM.Collect$$rtentry$$00000000) refers (Special) to rtentry2.o(.ARM.Collect$$rtentry$$0000000C) for __rt_entry_postli_1
    rtentry.o(.ARM.Collect$$rtentry$$00000000) refers (Special) to rtentry2.o(.ARM.Collect$$rtentry$$00000009) for __rt_entry_postsh_1
    rtentry.o(.ARM.Collect$$rtentry$$00000000) refers (Special) to rtentry2.o(.ARM.Collect$$rtentry$$00000002) for __rt_entry_presh_1
    rtentry.o(.ARM.Collect$$rtentry$$00000000) refers (Special) to rtentry4.o(.ARM.Collect$$rtentry$$00000004) for __rt_entry_sh
    rt_errno_addr.o(.text) refers to rt_errno_addr.o(.bss) for __aeabi_errno_addr_data
    rt_errno_addr_intlibspace.o(.text) refers to libspace.o(.bss) for __libspace_start
    _rserrno.o(.text) refers to rt_errno_addr_intlibspace.o(.text) for __aeabi_errno_addr
    _printf_fp_dec.o(.text) refers (Special) to usenofp.o(x$fpl$usenofp) for __I$use$fp
    _printf_fp_dec.o(.text) refers (Special) to lc_numeric_c.o(locale$$code) for _get_lc_numeric
    _printf_fp_dec.o(.text) refers to bigflt0.o(.text) for _btod_etento
    _printf_fp_dec.o(.text) refers to btod.o(CL$$btod_d2e) for _btod_d2e
    _printf_fp_dec.o(.text) refers to btod.o(CL$$btod_ediv) for _btod_ediv
    _printf_fp_dec.o(.text) refers to btod.o(CL$$btod_emul) for _btod_emul
    _printf_fp_dec.o(.text) refers to lludiv10.o(.text) for _ll_udiv10
    _printf_fp_dec.o(.text) refers to fpclassify.o(i.__ARM_fpclassify) for __ARM_fpclassify
    _printf_fp_dec.o(.text) refers to _printf_fp_infnan.o(.text) for _printf_fp_infnan
    _printf_fp_dec.o(.text) refers (Weak) to _printf_pad.o(.text) for _printf_pre_padding
    _printf_fp_dec.o(.text) refers (Weak) to _printf_pad.o(.text) for _printf_pre_padding
    _printf_fp_dec.o(.text) refers to rt_locale_intlibspace.o(.text) for __rt_locale
    _printf_fp_dec.o(.text) refers (Weak) to _printf_pad.o(.text) for _printf_post_padding
    _printf_char_common.o(.text) refers to __printf_wp.o(.text) for __printf
    strtol.o(.text) refers to rt_ctype_table.o(.text) for __rt_ctype_table
    strtol.o(.text) refers to _strtoul.o(.text) for _strtoul
    strtol.o(.text) refers to rt_errno_addr_intlibspace.o(.text) for __aeabi_errno_addr
    dnaninf.o(x$fpl$dnaninf) refers (Special) to usenofp.o(x$fpl$usenofp) for __I$use$fp
    dretinf.o(x$fpl$dretinf) refers (Special) to usenofp.o(x$fpl$usenofp) for __I$use$fp
    fnaninf.o(x$fpl$fnaninf) refers (Special) to usenofp.o(x$fpl$usenofp) for __I$use$fp
    fretinf.o(x$fpl$fretinf) refers (Special) to usenofp.o(x$fpl$usenofp) for __I$use$fp
    fpclassifyf.o(i.__ARM_fpclassifyf) refers (Special) to usenofp.o(x$fpl$usenofp) for __I$use$fp
    rredf.o(i.__mathlib_rredf2) refers (Special) to usenofp.o(x$fpl$usenofp) for __I$use$fp
    rredf.o(i.__mathlib_rredf2) refers to rredf.o(.constdata) for .constdata
    rredf.o(.constdata) refers (Special) to usenofp.o(x$fpl$usenofp) for __I$use$fp
    libspace.o(.text) refers to libspace.o(.bss) for __libspace_start
    rtentry2.o(.ARM.Collect$$rtentry$$00000008) refers to boardinit2.o(.text) for _platform_post_stackheap_init
    rtentry2.o(.ARM.Collect$$rtentry$$0000000A) refers to libinit.o(.ARM.Collect$$libinit$$00000000) for __rt_lib_init
    rtentry2.o(.ARM.Collect$$rtentry$$0000000B) refers to boardinit3.o(.text) for _platform_post_lib_init
    rtentry2.o(.ARM.Collect$$rtentry$$0000000D) refers to startup.o(.text) for main
    rtentry2.o(.ARM.Collect$$rtentry$$0000000D) refers to exit.o(.text) for exit
    rtentry2.o(.ARM.exidx) refers to rtentry2.o(.ARM.Collect$$rtentry$$00000001) for .ARM.Collect$$rtentry$$00000001
    rtentry2.o(.ARM.exidx) refers to rtentry2.o(.ARM.Collect$$rtentry$$00000008) for .ARM.Collect$$rtentry$$00000008
    rtentry2.o(.ARM.exidx) refers to rtentry2.o(.ARM.Collect$$rtentry$$0000000A) for .ARM.Collect$$rtentry$$0000000A
    rtentry2.o(.ARM.exidx) refers to rtentry2.o(.ARM.Collect$$rtentry$$0000000B) for .ARM.Collect$$rtentry$$0000000B
    rtentry2.o(.ARM.exidx) refers to rtentry2.o(.ARM.Collect$$rtentry$$0000000D) for .ARM.Collect$$rtentry$$0000000D
    rtentry4.o(.ARM.Collect$$rtentry$$00000004) refers to sys_stackheap_outer.o(.text) for __user_setup_stackheap
    rtentry4.o(.ARM.exidx) refers to rtentry4.o(.ARM.Collect$$rtentry$$00000004) for .ARM.Collect$$rtentry$$00000004
    rt_ctype_table.o(.text) refers to rt_locale_intlibspace.o(.text) for __rt_locale
    rt_ctype_table.o(.text) refers to lc_ctype_c.o(locale$$code) for _get_lc_ctype
    rt_locale.o(.text) refers to rt_locale.o(.bss) for __rt_locale_data
    rt_locale_intlibspace.o(.text) refers to libspace.o(.bss) for __libspace_start
    _printf_fp_infnan.o(.text) refers (Weak) to _printf_pad.o(.text) for _printf_pre_padding
    _printf_fp_infnan.o(.text) refers (Weak) to _printf_pad.o(.text) for _printf_post_padding
    _strtoul.o(.text) refers to _chval.o(.text) for _chval
    _strtoul.o(.text) refers to rt_errno_addr_intlibspace.o(.text) for __aeabi_errno_addr
    bigflt0.o(.text) refers (Special) to usenofp.o(x$fpl$usenofp) for __I$use$fp
    bigflt0.o(.text) refers to btod.o(CL$$btod_emul) for _btod_emul
    bigflt0.o(.text) refers to btod.o(CL$$btod_ediv) for _btod_ediv
    bigflt0.o(.text) refers to bigflt0.o(.constdata) for .constdata
    bigflt0.o(.constdata) refers (Special) to usenofp.o(x$fpl$usenofp) for __I$use$fp
    btod.o(CL$$btod_d2e) refers (Special) to usenofp.o(x$fpl$usenofp) for __I$use$fp
    btod.o(CL$$btod_d2e) refers to btod.o(CL$$btod_d2e_norm_op1) for _d2e_norm_op1
    btod.o(CL$$btod_d2e_norm_op1) refers (Special) to usenofp.o(x$fpl$usenofp) for __I$use$fp
    btod.o(CL$$btod_d2e_norm_op1) refers to btod.o(CL$$btod_d2e_denorm_low) for _d2e_denorm_low
    btod.o(CL$$btod_d2e_denorm_low) refers (Special) to usenofp.o(x$fpl$usenofp) for __I$use$fp
    btod.o(CL$$btod_emul) refers (Special) to usenofp.o(x$fpl$usenofp) for __I$use$fp
    btod.o(CL$$btod_emul) refers to btod.o(CL$$btod_mult_common) for __btod_mult_common
    btod.o(CL$$btod_emul) refers to btod.o(CL$$btod_e2e) for _e2e
    btod.o(CL$$btod_ediv) refers (Special) to usenofp.o(x$fpl$usenofp) for __I$use$fp
    btod.o(CL$$btod_ediv) refers to btod.o(CL$$btod_div_common) for __btod_div_common
    btod.o(CL$$btod_ediv) refers to btod.o(CL$$btod_e2e) for _e2e
    btod.o(CL$$btod_emuld) refers (Special) to usenofp.o(x$fpl$usenofp) for __I$use$fp
    btod.o(CL$$btod_emuld) refers to btod.o(CL$$btod_mult_common) for __btod_mult_common
    btod.o(CL$$btod_emuld) refers to btod.o(CL$$btod_e2d) for _e2d
    btod.o(CL$$btod_edivd) refers (Special) to usenofp.o(x$fpl$usenofp) for __I$use$fp
    btod.o(CL$$btod_edivd) refers to btod.o(CL$$btod_div_common) for __btod_div_common
    btod.o(CL$$btod_edivd) refers to btod.o(CL$$btod_e2d) for _e2d
    btod.o(CL$$btod_e2e) refers (Special) to usenofp.o(x$fpl$usenofp) for __I$use$fp
    btod.o(CL$$btod_e2d) refers (Special) to usenofp.o(x$fpl$usenofp) for __I$use$fp
    btod.o(CL$$btod_e2d) refers to btod.o(CL$$btod_e2e) for _e2e
    btod.o(CL$$btod_mult_common) refers (Special) to usenofp.o(x$fpl$usenofp) for __I$use$fp
    btod.o(CL$$btod_div_common) refers (Special) to usenofp.o(x$fpl$usenofp) for __I$use$fp
    lc_numeric_c.o(locale$$data) refers (Special) to libinit2.o(.ARM.Collect$$libinit$$00000012) for __rt_lib_init_lc_numeric_2
    lc_numeric_c.o(locale$$code) refers (Special) to libinit2.o(.ARM.Collect$$libinit$$00000012) for __rt_lib_init_lc_numeric_2
    lc_numeric_c.o(locale$$code) refers to strcmpv7m.o(.text) for strcmp
    lc_numeric_c.o(locale$$code) refers to lc_numeric_c.o(locale$$data) for __lcnum_c_name
    istatus.o(x$fpl$ieeestatus) refers (Special) to usenofp.o(x$fpl$usenofp) for __I$use$fp
    fpclassify.o(i.__ARM_fpclassify) refers (Special) to usenofp.o(x$fpl$usenofp) for __I$use$fp
    sys_stackheap_outer.o(.text) refers to libspace.o(.text) for __user_perproc_libspace
    sys_stackheap_outer.o(.text) refers to startup_stm32f4xx.o(.text) for __user_initial_stackheap
    lc_ctype_c.o(locale$$data) refers (Special) to libinit2.o(.ARM.Collect$$libinit$$0000000E) for __rt_lib_init_lc_ctype_2
    lc_ctype_c.o(locale$$code) refers (Special) to libinit2.o(.ARM.Collect$$libinit$$0000000E) for __rt_lib_init_lc_ctype_2
    lc_ctype_c.o(locale$$code) refers to strcmpv7m.o(.text) for strcmp
    lc_ctype_c.o(locale$$code) refers to lc_ctype_c.o(locale$$data) for __lcctype_c_name
    exit.o(.text) refers to rtexit.o(.ARM.Collect$$rtexit$$00000000) for __rt_exit
    libinit.o(.ARM.Collect$$libinit$$00000000) refers (Special) to libinit2.o(.ARM.Collect$$libinit$$0000002A) for __rt_lib_init_alloca_1
    libinit.o(.ARM.Collect$$libinit$$00000000) refers (Special) to libinit2.o(.ARM.Collect$$libinit$$00000028) for __rt_lib_init_argv_1
    libinit.o(.ARM.Collect$$libinit$$00000000) refers (Special) to libinit2.o(.ARM.Collect$$libinit$$00000017) for __rt_lib_init_atexit_1
    libinit.o(.ARM.Collect$$libinit$$00000000) refers (Special) to libinit2.o(.ARM.Collect$$libinit$$0000001D) for __rt_lib_init_clock_1
    libinit.o(.ARM.Collect$$libinit$$00000000) refers (Special) to libinit2.o(.ARM.Collect$$libinit$$0000002E) for __rt_lib_init_cpp_1
    libinit.o(.ARM.Collect$$libinit$$00000000) refers (Special) to libinit2.o(.ARM.Collect$$libinit$$0000002C) for __rt_lib_init_exceptions_1
    libinit.o(.ARM.Collect$$libinit$$00000000) refers (Special) to libinit2.o(.ARM.Collect$$libinit$$0000001B) for __rt_lib_init_fp_trap_1
    libinit.o(.ARM.Collect$$libinit$$00000000) refers (Special) to libinit2.o(.ARM.Collect$$libinit$$0000001F) for __rt_lib_init_getenv_1
    libinit.o(.ARM.Collect$$libinit$$00000000) refers (Special) to libinit2.o(.ARM.Collect$$libinit$$00000006) for __rt_lib_init_heap_1
    libinit.o(.ARM.Collect$$libinit$$00000000) refers (Special) to libinit2.o(.ARM.Collect$$libinit$$0000000D) for __rt_lib_init_lc_collate_1
    libinit.o(.ARM.Collect$$libinit$$00000000) refers (Special) to libinit2.o(.ARM.Collect$$libinit$$0000000F) for __rt_lib_init_lc_ctype_1
    libinit.o(.ARM.Collect$$libinit$$00000000) refers (Special) to libinit2.o(.ARM.Collect$$libinit$$00000011) for __rt_lib_init_lc_monetary_1
    libinit.o(.ARM.Collect$$libinit$$00000000) refers (Special) to libinit2.o(.ARM.Collect$$libinit$$00000013) for __rt_lib_init_lc_numeric_1
    libinit.o(.ARM.Collect$$libinit$$00000000) refers (Special) to libinit2.o(.ARM.Collect$$libinit$$00000015) for __rt_lib_init_lc_time_1
    libinit.o(.ARM.Collect$$libinit$$00000000) refers (Special) to libinit2.o(.ARM.Collect$$libinit$$0000000A) for __rt_lib_init_rand_1
    libinit.o(.ARM.Collect$$libinit$$00000000) refers (Special) to libinit2.o(.ARM.Collect$$libinit$$0000002F) for __rt_lib_init_return
    libinit.o(.ARM.Collect$$libinit$$00000000) refers (Special) to libinit2.o(.ARM.Collect$$libinit$$00000019) for __rt_lib_init_signal_1
    libinit.o(.ARM.Collect$$libinit$$00000000) refers (Special) to libinit2.o(.ARM.Collect$$libinit$$00000021) for __rt_lib_init_stdio_1
    libinit.o(.ARM.Collect$$libinit$$00000000) refers (Special) to libinit2.o(.ARM.Collect$$libinit$$00000008) for __rt_lib_init_user_alloc_1
    libinit.o(.ARM.Collect$$libinit$$00000000) refers to fpinit.o(x$fpl$fpinit) for _fp_init
    libinit2.o(.ARM.Collect$$libinit$$0000000B) refers (Weak) to rt_locale_intlibspace.o(.text) for __rt_locale
    libinit2.o(.ARM.Collect$$libinit$$0000000C) refers to libinit2.o(.ARM.Collect$$libinit$$0000000B) for .ARM.Collect$$libinit$$0000000B
    libinit2.o(.ARM.Collect$$libinit$$0000000E) refers to libinit2.o(.ARM.Collect$$libinit$$0000000B) for .ARM.Collect$$libinit$$0000000B
    libinit2.o(.ARM.Collect$$libinit$$0000000E) refers (Weak) to lc_ctype_c.o(locale$$code) for _get_lc_ctype
    libinit2.o(.ARM.Collect$$libinit$$00000010) refers to libinit2.o(.ARM.Collect$$libinit$$0000000B) for .ARM.Collect$$libinit$$0000000B
    libinit2.o(.ARM.Collect$$libinit$$00000012) refers to libinit2.o(.ARM.Collect$$libinit$$0000000B) for .ARM.Collect$$libinit$$0000000B
    libinit2.o(.ARM.Collect$$libinit$$00000012) refers (Weak) to lc_numeric_c.o(locale$$code) for _get_lc_numeric
    libinit2.o(.ARM.Collect$$libinit$$00000014) refers to libinit2.o(.ARM.Collect$$libinit$$0000000B) for .ARM.Collect$$libinit$$0000000B
    libinit2.o(.ARM.Collect$$libinit$$00000022) refers to argv_veneer.o(.emb_text) for __ARM_argv_veneer
    libinit2.o(.ARM.Collect$$libinit$$00000023) refers to argv_veneer.o(.emb_text) for __ARM_argv_veneer
    rtexit.o(.ARM.Collect$$rtexit$$00000000) refers (Special) to rtexit2.o(.ARM.Collect$$rtexit$$00000004) for __rt_exit_exit
    rtexit.o(.ARM.Collect$$rtexit$$00000000) refers (Special) to rtexit2.o(.ARM.Collect$$rtexit$$00000003) for __rt_exit_ls
    rtexit.o(.ARM.Collect$$rtexit$$00000000) refers (Special) to rtexit2.o(.ARM.Collect$$rtexit$$00000002) for __rt_exit_prels_1
    rtexit.o(.ARM.exidx) refers (Special) to rtexit2.o(.ARM.Collect$$rtexit$$00000004) for __rt_exit_exit
    rtexit.o(.ARM.exidx) refers (Special) to rtexit2.o(.ARM.Collect$$rtexit$$00000003) for __rt_exit_ls
    rtexit.o(.ARM.exidx) refers (Special) to rtexit2.o(.ARM.Collect$$rtexit$$00000002) for __rt_exit_prels_1
    rtexit.o(.ARM.exidx) refers to rtexit.o(.ARM.Collect$$rtexit$$00000000) for .ARM.Collect$$rtexit$$00000000
    argv_veneer.o(.emb_text) refers to no_argv.o(.text) for __ARM_get_argv
    rtexit2.o(.ARM.Collect$$rtexit$$00000003) refers to libshutdown.o(.ARM.Collect$$libshutdown$$00000000) for __rt_lib_shutdown
    rtexit2.o(.ARM.Collect$$rtexit$$00000004) refers to sys_exit.o(.text) for _sys_exit
    rtexit2.o(.ARM.exidx) refers to rtexit2.o(.ARM.Collect$$rtexit$$00000001) for .ARM.Collect$$rtexit$$00000001
    rtexit2.o(.ARM.exidx) refers to rtexit2.o(.ARM.Collect$$rtexit$$00000003) for .ARM.Collect$$rtexit$$00000003
    rtexit2.o(.ARM.exidx) refers to rtexit2.o(.ARM.Collect$$rtexit$$00000004) for .ARM.Collect$$rtexit$$00000004
    _get_argv_nomalloc.o(.text) refers (Special) to hrguard.o(.text) for __heap_region$guard
    _get_argv_nomalloc.o(.text) refers to defsig_rtmem_outer.o(.text) for __rt_SIGRTMEM
    _get_argv_nomalloc.o(.text) refers to sys_command.o(.text) for _sys_command_string
    sys_command.o(.text) refers (Special) to use_no_semi.o(.text) for __I$use$semihosting
    sys_command.o(.text) refers (Special) to indicate_semi.o(.text) for __semihosting_library_function
    sys_exit.o(.text) refers (Special) to use_no_semi.o(.text) for __I$use$semihosting
    sys_exit.o(.text) refers (Special) to indicate_semi.o(.text) for __semihosting_library_function
    defsig_rtmem_outer.o(.text) refers to defsig_rtmem_inner.o(.text) for __rt_SIGRTMEM_inner
    defsig_rtmem_outer.o(.text) refers to defsig_exit.o(.text) for __sig_exit
    defsig_rtmem_formal.o(.text) refers to rt_raise.o(.text) for __rt_raise
    libshutdown.o(.ARM.Collect$$libshutdown$$00000000) refers (Special) to libshutdown2.o(.ARM.Collect$$libshutdown$$00000006) for __rt_lib_shutdown_fp_trap_1
    libshutdown.o(.ARM.Collect$$libshutdown$$00000000) refers (Special) to libshutdown2.o(.ARM.Collect$$libshutdown$$0000000E) for __rt_lib_shutdown_heap_1
    libshutdown.o(.ARM.Collect$$libshutdown$$00000000) refers (Special) to libshutdown2.o(.ARM.Collect$$libshutdown$$0000000F) for __rt_lib_shutdown_return
    libshutdown.o(.ARM.Collect$$libshutdown$$00000000) refers (Special) to libshutdown2.o(.ARM.Collect$$libshutdown$$00000009) for __rt_lib_shutdown_signal_1
    libshutdown.o(.ARM.Collect$$libshutdown$$00000000) refers (Special) to libshutdown2.o(.ARM.Collect$$libshutdown$$00000003) for __rt_lib_shutdown_stdio_1
    libshutdown.o(.ARM.Collect$$libshutdown$$00000000) refers (Special) to libshutdown2.o(.ARM.Collect$$libshutdown$$0000000B) for __rt_lib_shutdown_user_alloc_1
    rt_raise.o(.text) refers to __raise.o(.text) for __raise
    rt_raise.o(.text) refers to sys_exit.o(.text) for _sys_exit
    defsig_exit.o(.text) refers to sys_exit.o(.text) for _sys_exit
    defsig_rtmem_inner.o(.text) refers to defsig_general.o(.text) for __default_signal_display
    __raise.o(.text) refers to defsig.o(CL$$defsig) for __default_signal_handler
    defsig_general.o(.text) refers to sys_wrch.o(.text) for _ttywrch
    sys_wrch.o(.text) refers (Special) to use_no_semi.o(.text) for __I$use$semihosting
    sys_wrch.o(.text) refers (Special) to indicate_semi.o(.text) for __semihosting_library_function
    defsig.o(CL$$defsig) refers to defsig_rtmem_inner.o(.text) for __rt_SIGRTMEM_inner
    defsig_abrt_inner.o(.text) refers to defsig_general.o(.text) for __default_signal_display
    defsig_fpe_inner.o(.text) refers to defsig_general.o(.text) for __default_signal_display
    defsig_rtred_inner.o(.text) refers to defsig_general.o(.text) for __default_signal_display
    defsig_stak_inner.o(.text) refers to defsig_general.o(.text) for __default_signal_display
    defsig_pvfn_inner.o(.text) refers to defsig_general.o(.text) for __default_signal_display
    defsig_cppl_inner.o(.text) refers to defsig_general.o(.text) for __default_signal_display
    defsig_segv_inner.o(.text) refers to defsig_general.o(.text) for __default_signal_display
    defsig_other.o(.text) refers to defsig_general.o(.text) for __default_signal_display


==============================================================================

Removing Unused input sections from the image.

    Removing application.o(.emb_text), (8 bytes).
    Removing startup.o(.emb_text), (8 bytes).
    Removing heartbeat.o(.emb_text), (8 bytes).
    Removing bluetooth_4_0.o(.emb_text), (8 bytes).
    Removing mpu9250_app.o(.emb_text), (8 bytes).
    Removing board.o(.emb_text), (8 bytes).
    Removing serial.o(.emb_text), (8 bytes).
    Removing stm32f4xx_it.o(.emb_text), (8 bytes).
    Removing usart.o(.emb_text), (8 bytes).
    Removing mpu9250.o(.emb_text), (8 bytes).
    Removing system_stm32f4xx.o(.emb_text), (8 bytes).
    Removing misc.o(.emb_text), (8 bytes).
    Removing stm32f4xx_adc.o(.emb_text), (8 bytes).
    Removing stm32f4xx_adc.o(.text), (4216 bytes).
    Removing stm32f4xx_dbgmcu.o(.emb_text), (8 bytes).
    Removing stm32f4xx_dbgmcu.o(.text), (288 bytes).
    Removing stm32f4xx_dma.o(.emb_text), (8 bytes).
    Removing stm32f4xx_exti.o(.emb_text), (8 bytes).
    Removing stm32f4xx_exti.o(.text), (780 bytes).
    Removing stm32f4xx_flash.o(.emb_text), (8 bytes).
    Removing stm32f4xx_flash.o(.text), (1936 bytes).
    Removing stm32f4xx_gpio.o(.emb_text), (8 bytes).
    Removing stm32f4xx_i2c.o(.emb_text), (8 bytes).
    Removing stm32f4xx_i2c.o(.text), (3432 bytes).
    Removing stm32f4xx_rcc.o(.emb_text), (8 bytes).
    Removing stm32f4xx_rng.o(.emb_text), (8 bytes).
    Removing stm32f4xx_rng.o(.text), (364 bytes).
    Removing stm32f4xx_rtc.o(.emb_text), (8 bytes).
    Removing stm32f4xx_rtc.o(.text), (5984 bytes).
    Removing stm32f4xx_spi.o(.emb_text), (8 bytes).
    Removing stm32f4xx_syscfg.o(.emb_text), (8 bytes).
    Removing stm32f4xx_syscfg.o(.text), (388 bytes).
    Removing stm32f4xx_tim.o(.emb_text), (8 bytes).
    Removing stm32f4xx_tim.o(.text), (12828 bytes).
    Removing stm32f4xx_usart.o(.emb_text), (8 bytes).
    Removing backtrace.o(.text), (2 bytes).
    Removing div0.o(.text), (4 bytes).
    Removing showmem.o(.text), (164 bytes).
    Removing showmem.o(.constdata), (18 bytes).
    Removing algorithm_ahrs.o(.emb_text), (8 bytes).
    Removing algorithm_quaternion.o(.emb_text), (8 bytes).
    Removing kalman_filter.o(.emb_text), (8 bytes).

42 unused section(s) (total 30636 bytes) removed from the image.

==============================================================================

Image Symbol Table

    Local Symbols

    Symbol Name                              Value     Ov Type        Size  Object(Section)

    ../../angel/boardlib.s                   0x00000000   Number         0  boardshut.o ABSOLUTE
    ../../angel/boardlib.s                   0x00000000   Number         0  boardinit3.o ABSOLUTE
    ../../angel/boardlib.s                   0x00000000   Number         0  boardinit1.o ABSOLUTE
    ../../angel/boardlib.s                   0x00000000   Number         0  boardinit2.o ABSOLUTE
    ../../angel/dczerorl2.s                  0x00000000   Number         0  __dczerorl2.o ABSOLUTE
    ../../angel/handlers.s                   0x00000000   Number         0  __scatter_zi.o ABSOLUTE
    ../../angel/kernel.s                     0x00000000   Number         0  rtentry.o ABSOLUTE
    ../../angel/kernel.s                     0x00000000   Number         0  rtexit2.o ABSOLUTE
    ../../angel/kernel.s                     0x00000000   Number         0  rtentry2.o ABSOLUTE
    ../../angel/kernel.s                     0x00000000   Number         0  rtentry4.o ABSOLUTE
    ../../angel/kernel.s                     0x00000000   Number         0  rtexit.o ABSOLUTE
    ../../angel/rt.s                         0x00000000   Number         0  rt_errno_addr.o ABSOLUTE
    ../../angel/rt.s                         0x00000000   Number         0  rt_raise.o ABSOLUTE
    ../../angel/rt.s                         0x00000000   Number         0  rt_ctype_table.o ABSOLUTE
    ../../angel/rt.s                         0x00000000   Number         0  rt_locale_intlibspace.o ABSOLUTE
    ../../angel/rt.s                         0x00000000   Number         0  rt_errno_addr_intlibspace.o ABSOLUTE
    ../../angel/rt.s                         0x00000000   Number         0  rt_locale.o ABSOLUTE
    ../../angel/scatter.s                    0x00000000   Number         0  __scatter.o ABSOLUTE
    ../../angel/startup.s                    0x00000000   Number         0  __main.o ABSOLUTE
    ../../angel/sys.s                        0x00000000   Number         0  sys_stackheap_outer.o ABSOLUTE
    ../../angel/sys.s                        0x00000000   Number         0  libspace.o ABSOLUTE
    ../../angel/sys.s                        0x00000000   Number         0  indicate_semi.o ABSOLUTE
    ../../angel/sys.s                        0x00000000   Number         0  use_no_semi.o ABSOLUTE
    ../../angel/sysapp.c                     0x00000000   Number         0  sys_exit.o ABSOLUTE
    ../../angel/sysapp.c                     0x00000000   Number         0  sys_wrch.o ABSOLUTE
    ../../angel/sysapp.c                     0x00000000   Number         0  sys_command.o ABSOLUTE
    ../../armsys.c                           0x00000000   Number         0  _get_argv_nomalloc.o ABSOLUTE
    ../../armsys.c                           0x00000000   Number         0  no_argv.o ABSOLUTE
    ../../armsys.c                           0x00000000   Number         0  argv_veneer.o ABSOLUTE
    ../../armsys.c                           0x00000000   Number         0  argv_veneer.o ABSOLUTE
    ../../asinf.c                            0x00000000   Number         0  asinf_x.o ABSOLUTE
    ../../asinf.c                            0x00000000   Number         0  asinf.o ABSOLUTE
    ../../atan2f.c                           0x00000000   Number         0  atan2f.o ABSOLUTE
    ../../atan2f.c                           0x00000000   Number         0  atan2f_x.o ABSOLUTE
    ../../bigflt.c                           0x00000000   Number         0  bigflt0.o ABSOLUTE
    ../../btod.s                             0x00000000   Number         0  btod.o ABSOLUTE
    ../../cosf.c                             0x00000000   Number         0  cosf.o ABSOLUTE
    ../../cosf.c                             0x00000000   Number         0  cosf_x.o ABSOLUTE
    ../../d2f.s                              0x00000000   Number         0  d2f.o ABSOLUTE
    ../../daddsub.s                          0x00000000   Number         0  daddsub_clz.o ABSOLUTE
    ../../ddiv.s                             0x00000000   Number         0  ddiv.o ABSOLUTE
    ../../dfix.s                             0x00000000   Number         0  dfix.o ABSOLUTE
    ../../dflt.s                             0x00000000   Number         0  dflt_clz.o ABSOLUTE
    ../../dmul.s                             0x00000000   Number         0  dmul.o ABSOLUTE
    ../../dnaninf.s                          0x00000000   Number         0  dnaninf.o ABSOLUTE
    ../../dretinf.s                          0x00000000   Number         0  dretinf.o ABSOLUTE
    ../../f2d.s                              0x00000000   Number         0  f2d.o ABSOLUTE
    ../../fenv.c                             0x00000000   Number         0  _rserrno.o ABSOLUTE
    ../../fnaninf.s                          0x00000000   Number         0  fnaninf.o ABSOLUTE
    ../../fpclassify.c                       0x00000000   Number         0  fpclassify.o ABSOLUTE
    ../../fpclassifyf.c                      0x00000000   Number         0  fpclassifyf.o ABSOLUTE
    ../../fpinit.s                           0x00000000   Number         0  fpinit.o ABSOLUTE
    ../../fretinf.s                          0x00000000   Number         0  fretinf.o ABSOLUTE
    ../../funder.c                           0x00000000   Number         0  funder.o ABSOLUTE
    ../../heapalloc.c                        0x00000000   Number         0  hrguard.o ABSOLUTE
    ../../heapaux.c                          0x00000000   Number         0  heapauxi.o ABSOLUTE
    ../../istatus.s                          0x00000000   Number         0  istatus.o ABSOLUTE
    ../../libinit.s                          0x00000000   Number         0  libshutdown.o ABSOLUTE
    ../../libinit.s                          0x00000000   Number         0  libinit.o ABSOLUTE
    ../../libinit.s                          0x00000000   Number         0  libinit2.o ABSOLUTE
    ../../libinit.s                          0x00000000   Number         0  libshutdown2.o ABSOLUTE
    ../../locale.s                           0x00000000   Number         0  lc_ctype_c.o ABSOLUTE
    ../../locale.s                           0x00000000   Number         0  lc_numeric_c.o ABSOLUTE
    ../../longlong.s                         0x00000000   Number         0  lludiv10.o ABSOLUTE
    ../../memcpset.s                         0x00000000   Number         0  strcmpv7m.o ABSOLUTE
    ../../memcpset.s                         0x00000000   Number         0  strncpy.o ABSOLUTE
    ../../memcpset.s                         0x00000000   Number         0  rt_memcpy_w.o ABSOLUTE
    ../../memcpset.s                         0x00000000   Number         0  rt_memcpy_v6.o ABSOLUTE
    ../../memcpset.s                         0x00000000   Number         0  rt_memclr.o ABSOLUTE
    ../../memcpset.s                         0x00000000   Number         0  rt_memclr_w.o ABSOLUTE
    ../../misc.s                             0x00000000   Number         0  printf_stubs.o ABSOLUTE
    ../../printf.c                           0x00000000   Number         0  __printf_flags_ss_wp.o ABSOLUTE
    ../../printf.c                           0x00000000   Number         0  __printf_nopercent.o ABSOLUTE
    ../../printf.c                           0x00000000   Number         0  _printf_fp_infnan.o ABSOLUTE
    ../../printf.c                           0x00000000   Number         0  _printf_pad.o ABSOLUTE
    ../../printf.c                           0x00000000   Number         0  __2sprintf.o ABSOLUTE
    ../../printf.c                           0x00000000   Number         0  noretval__2sprintf.o ABSOLUTE
    ../../printf.c                           0x00000000   Number         0  __printf.o ABSOLUTE
    ../../printf.c                           0x00000000   Number         0  __printf_flags.o ABSOLUTE
    ../../printf.c                           0x00000000   Number         0  __printf_ss.o ABSOLUTE
    ../../printf.c                           0x00000000   Number         0  __printf_flags_ss.o ABSOLUTE
    ../../printf.c                           0x00000000   Number         0  _sputc.o ABSOLUTE
    ../../printf.c                           0x00000000   Number         0  _printf_char_common.o ABSOLUTE
    ../../printf.c                           0x00000000   Number         0  _printf_fp_dec.o ABSOLUTE
    ../../printf.c                           0x00000000   Number         0  __printf_wp.o ABSOLUTE
    ../../printf.c                           0x00000000   Number         0  __printf_flags_wp.o ABSOLUTE
    ../../printf.c                           0x00000000   Number         0  __printf_ss_wp.o ABSOLUTE
    ../../printf1.s                          0x00000000   Number         0  printf1.o ABSOLUTE
    ../../printf_percent.s                   0x00000000   Number         0  _printf_f.o ABSOLUTE
    ../../printf_percent.s                   0x00000000   Number         0  _printf_percent_end.o ABSOLUTE
    ../../printf_percent.s                   0x00000000   Number         0  _printf_percent.o ABSOLUTE
    ../../rredf.c                            0x00000000   Number         0  rredf.o ABSOLUTE
    ../../scanf.c                            0x00000000   Number         0  atoi.o ABSOLUTE
    ../../scanf.c                            0x00000000   Number         0  _strtoul.o ABSOLUTE
    ../../scanf.c                            0x00000000   Number         0  _chval.o ABSOLUTE
    ../../scanf.c                            0x00000000   Number         0  strtol.o ABSOLUTE
    ../../signal.c                           0x00000000   Number         0  defsig_general.o ABSOLUTE
    ../../signal.c                           0x00000000   Number         0  __raise.o ABSOLUTE
    ../../signal.c                           0x00000000   Number         0  defsig_rtmem_inner.o ABSOLUTE
    ../../signal.c                           0x00000000   Number         0  defsig_exit.o ABSOLUTE
    ../../signal.c                           0x00000000   Number         0  defsig_rtmem_formal.o ABSOLUTE
    ../../signal.c                           0x00000000   Number         0  defsig_rtmem_outer.o ABSOLUTE
    ../../signal.c                           0x00000000   Number         0  defsig_segv_inner.o ABSOLUTE
    ../../signal.c                           0x00000000   Number         0  defsig_other.o ABSOLUTE
    ../../signal.c                           0x00000000   Number         0  defsig_cppl_inner.o ABSOLUTE
    ../../signal.c                           0x00000000   Number         0  defsig_pvfn_inner.o ABSOLUTE
    ../../signal.c                           0x00000000   Number         0  defsig_stak_inner.o ABSOLUTE
    ../../signal.c                           0x00000000   Number         0  defsig_rtred_inner.o ABSOLUTE
    ../../signal.c                           0x00000000   Number         0  defsig_fpe_inner.o ABSOLUTE
    ../../signal.c                           0x00000000   Number         0  defsig_abrt_inner.o ABSOLUTE
    ../../signal.s                           0x00000000   Number         0  defsig.o ABSOLUTE
    ../../sinf.c                             0x00000000   Number         0  sinf_x.o ABSOLUTE
    ../../sinf.c                             0x00000000   Number         0  sinf.o ABSOLUTE
    ../../sqrtf.c                            0x00000000   Number         0  sqrtf_x.o ABSOLUTE
    ../../sqrtf.c                            0x00000000   Number         0  sqrtf.o ABSOLUTE
    ../../stdlib.c                           0x00000000   Number         0  exit.o ABSOLUTE
    ../../string.c                           0x00000000   Number         0  strncmp.o ABSOLUTE
    ../../string.c                           0x00000000   Number         0  strlen.o ABSOLUTE
    ../../usenofp.s                          0x00000000   Number         0  usenofp.o ABSOLUTE
    ..\..\components\finsh\cmd.c             0x00000000   Number         0  cmd.o ABSOLUTE
    ..\..\components\finsh\finsh_compiler.c  0x00000000   Number         0  finsh_compiler.o ABSOLUTE
    ..\..\components\finsh\finsh_error.c     0x00000000   Number         0  finsh_error.o ABSOLUTE
    ..\..\components\finsh\finsh_heap.c      0x00000000   Number         0  finsh_heap.o ABSOLUTE
    ..\..\components\finsh\finsh_init.c      0x00000000   Number         0  finsh_init.o ABSOLUTE
    ..\..\components\finsh\finsh_node.c      0x00000000   Number         0  finsh_node.o ABSOLUTE
    ..\..\components\finsh\finsh_ops.c       0x00000000   Number         0  finsh_ops.o ABSOLUTE
    ..\..\components\finsh\finsh_parser.c    0x00000000   Number         0  finsh_parser.o ABSOLUTE
    ..\..\components\finsh\finsh_token.c     0x00000000   Number         0  finsh_token.o ABSOLUTE
    ..\..\components\finsh\finsh_var.c       0x00000000   Number         0  finsh_var.o ABSOLUTE
    ..\..\components\finsh\finsh_vm.c        0x00000000   Number         0  finsh_vm.o ABSOLUTE
    ..\..\components\finsh\shell.c           0x00000000   Number         0  shell.o ABSOLUTE
    ..\..\components\finsh\symbol.c          0x00000000   Number         0  symbol.o ABSOLUTE
    ..\..\libcpu\arm\common\backtrace.c      0x00000000   Number         0  backtrace.o ABSOLUTE
    ..\..\libcpu\arm\common\div0.c           0x00000000   Number         0  div0.o ABSOLUTE
    ..\..\libcpu\arm\common\showmem.c        0x00000000   Number         0  showmem.o ABSOLUTE
    ..\..\libcpu\arm\cortex-m4\context_rvds.S 0x00000000   Number         0  context_rvds.o ABSOLUTE
    ..\..\libcpu\arm\cortex-m4\cpuport.c     0x00000000   Number         0  cpuport.o ABSOLUTE
    ..\..\src\clock.c                        0x00000000   Number         0  clock.o ABSOLUTE
    ..\..\src\device.c                       0x00000000   Number         0  device.o ABSOLUTE
    ..\..\src\idle.c                         0x00000000   Number         0  idle.o ABSOLUTE
    ..\..\src\ipc.c                          0x00000000   Number         0  ipc.o ABSOLUTE
    ..\..\src\irq.c                          0x00000000   Number         0  irq.o ABSOLUTE
    ..\..\src\kservice.c                     0x00000000   Number         0  kservice.o ABSOLUTE
    ..\..\src\mem.c                          0x00000000   Number         0  mem.o ABSOLUTE
    ..\..\src\mempool.c                      0x00000000   Number         0  mempool.o ABSOLUTE
    ..\..\src\object.c                       0x00000000   Number         0  object.o ABSOLUTE
    ..\..\src\scheduler.c                    0x00000000   Number         0  scheduler.o ABSOLUTE
    ..\..\src\thread.c                       0x00000000   Number         0  thread.o ABSOLUTE
    ..\..\src\timer.c                        0x00000000   Number         0  timer.o ABSOLUTE
    Libraries\CMSIS\ST\STM32F4xx\Source\Templates\arm\startup_stm32f4xx.s 0x00000000   Number         0  startup_stm32f4xx.o ABSOLUTE
    Libraries\CMSIS\ST\STM32F4xx\Source\Templates\system_stm32f4xx.c 0x00000000   Number         0  system_stm32f4xx.o ABSOLUTE
    Libraries\STM32F4xx_StdPeriph_Driver\src\misc.c 0x00000000   Number         0  misc.o ABSOLUTE
    Libraries\STM32F4xx_StdPeriph_Driver\src\stm32f4xx_adc.c 0x00000000   Number         0  stm32f4xx_adc.o ABSOLUTE
    Libraries\STM32F4xx_StdPeriph_Driver\src\stm32f4xx_dbgmcu.c 0x00000000   Number         0  stm32f4xx_dbgmcu.o ABSOLUTE
    Libraries\STM32F4xx_StdPeriph_Driver\src\stm32f4xx_dma.c 0x00000000   Number         0  stm32f4xx_dma.o ABSOLUTE
    Libraries\STM32F4xx_StdPeriph_Driver\src\stm32f4xx_exti.c 0x00000000   Number         0  stm32f4xx_exti.o ABSOLUTE
    Libraries\STM32F4xx_StdPeriph_Driver\src\stm32f4xx_flash.c 0x00000000   Number         0  stm32f4xx_flash.o ABSOLUTE
    Libraries\STM32F4xx_StdPeriph_Driver\src\stm32f4xx_gpio.c 0x00000000   Number         0  stm32f4xx_gpio.o ABSOLUTE
    Libraries\STM32F4xx_StdPeriph_Driver\src\stm32f4xx_i2c.c 0x00000000   Number         0  stm32f4xx_i2c.o ABSOLUTE
    Libraries\STM32F4xx_StdPeriph_Driver\src\stm32f4xx_rcc.c 0x00000000   Number         0  stm32f4xx_rcc.o ABSOLUTE
    Libraries\STM32F4xx_StdPeriph_Driver\src\stm32f4xx_rng.c 0x00000000   Number         0  stm32f4xx_rng.o ABSOLUTE
    Libraries\STM32F4xx_StdPeriph_Driver\src\stm32f4xx_rtc.c 0x00000000   Number         0  stm32f4xx_rtc.o ABSOLUTE
    Libraries\STM32F4xx_StdPeriph_Driver\src\stm32f4xx_spi.c 0x00000000   Number         0  stm32f4xx_spi.o ABSOLUTE
    Libraries\STM32F4xx_StdPeriph_Driver\src\stm32f4xx_syscfg.c 0x00000000   Number         0  stm32f4xx_syscfg.o ABSOLUTE
    Libraries\STM32F4xx_StdPeriph_Driver\src\stm32f4xx_tim.c 0x00000000   Number         0  stm32f4xx_tim.o ABSOLUTE
    Libraries\STM32F4xx_StdPeriph_Driver\src\stm32f4xx_usart.c 0x00000000   Number         0  stm32f4xx_usart.o ABSOLUTE
    Libraries\\CMSIS\\ST\\STM32F4xx\\Source\\Templates\\system_stm32f4xx.c 0x00000000   Number         0  system_stm32f4xx.o ABSOLUTE
    Libraries\\STM32F4xx_StdPeriph_Driver\\src\\misc.c 0x00000000   Number         0  misc.o ABSOLUTE
    Libraries\\STM32F4xx_StdPeriph_Driver\\src\\stm32f4xx_adc.c 0x00000000   Number         0  stm32f4xx_adc.o ABSOLUTE
    Libraries\\STM32F4xx_StdPeriph_Driver\\src\\stm32f4xx_dbgmcu.c 0x00000000   Number         0  stm32f4xx_dbgmcu.o ABSOLUTE
    Libraries\\STM32F4xx_StdPeriph_Driver\\src\\stm32f4xx_dma.c 0x00000000   Number         0  stm32f4xx_dma.o ABSOLUTE
    Libraries\\STM32F4xx_StdPeriph_Driver\\src\\stm32f4xx_exti.c 0x00000000   Number         0  stm32f4xx_exti.o ABSOLUTE
    Libraries\\STM32F4xx_StdPeriph_Driver\\src\\stm32f4xx_flash.c 0x00000000   Number         0  stm32f4xx_flash.o ABSOLUTE
    Libraries\\STM32F4xx_StdPeriph_Driver\\src\\stm32f4xx_gpio.c 0x00000000   Number         0  stm32f4xx_gpio.o ABSOLUTE
    Libraries\\STM32F4xx_StdPeriph_Driver\\src\\stm32f4xx_i2c.c 0x00000000   Number         0  stm32f4xx_i2c.o ABSOLUTE
    Libraries\\STM32F4xx_StdPeriph_Driver\\src\\stm32f4xx_rcc.c 0x00000000   Number         0  stm32f4xx_rcc.o ABSOLUTE
    Libraries\\STM32F4xx_StdPeriph_Driver\\src\\stm32f4xx_rng.c 0x00000000   Number         0  stm32f4xx_rng.o ABSOLUTE
    Libraries\\STM32F4xx_StdPeriph_Driver\\src\\stm32f4xx_rtc.c 0x00000000   Number         0  stm32f4xx_rtc.o ABSOLUTE
    Libraries\\STM32F4xx_StdPeriph_Driver\\src\\stm32f4xx_spi.c 0x00000000   Number         0  stm32f4xx_spi.o ABSOLUTE
    Libraries\\STM32F4xx_StdPeriph_Driver\\src\\stm32f4xx_syscfg.c 0x00000000   Number         0  stm32f4xx_syscfg.o ABSOLUTE
    Libraries\\STM32F4xx_StdPeriph_Driver\\src\\stm32f4xx_tim.c 0x00000000   Number         0  stm32f4xx_tim.o ABSOLUTE
    Libraries\\STM32F4xx_StdPeriph_Driver\\src\\stm32f4xx_usart.c 0x00000000   Number         0  stm32f4xx_usart.o ABSOLUTE
    applications\\application.c              0x00000000   Number         0  application.o ABSOLUTE
    applications\\bluetooth_4_0.c            0x00000000   Number         0  bluetooth_4_0.o ABSOLUTE
    applications\\heartbeat.c                0x00000000   Number         0  heartbeat.o ABSOLUTE
    applications\\mpu9250_app.c              0x00000000   Number         0  mpu9250_app.o ABSOLUTE
    applications\\startup.c                  0x00000000   Number         0  startup.o ABSOLUTE
    applications\application.c               0x00000000   Number         0  application.o ABSOLUTE
    applications\bluetooth_4_0.c             0x00000000   Number         0  bluetooth_4_0.o ABSOLUTE
    applications\heartbeat.c                 0x00000000   Number         0  heartbeat.o ABSOLUTE
    applications\mpu9250_app.c               0x00000000   Number         0  mpu9250_app.o ABSOLUTE
    applications\startup.c                   0x00000000   Number         0  startup.o ABSOLUTE
    data_processing\\algorithm_ahrs.c        0x00000000   Number         0  algorithm_ahrs.o ABSOLUTE
    data_processing\\algorithm_quaternion.c  0x00000000   Number         0  algorithm_quaternion.o ABSOLUTE
    data_processing\\kalman_filter.c         0x00000000   Number         0  kalman_filter.o ABSOLUTE
    data_processing\algorithm_ahrs.c         0x00000000   Number         0  algorithm_ahrs.o ABSOLUTE
    data_processing\algorithm_quaternion.c   0x00000000   Number         0  algorithm_quaternion.o ABSOLUTE
    data_processing\kalman_filter.c          0x00000000   Number         0  kalman_filter.o ABSOLUTE
    dc.s                                     0x00000000   Number         0  dc.o ABSOLUTE
    drivers\\board.c                         0x00000000   Number         0  board.o ABSOLUTE
    drivers\\mpu9250.c                       0x00000000   Number         0  mpu9250.o ABSOLUTE
    drivers\\serial.c                        0x00000000   Number         0  serial.o ABSOLUTE
    drivers\\stm32f4xx_it.c                  0x00000000   Number         0  stm32f4xx_it.o ABSOLUTE
    drivers\\usart.c                         0x00000000   Number         0  usart.o ABSOLUTE
    drivers\board.c                          0x00000000   Number         0  board.o ABSOLUTE
    drivers\mpu9250.c                        0x00000000   Number         0  mpu9250.o ABSOLUTE
    drivers\serial.c                         0x00000000   Number         0  serial.o ABSOLUTE
    drivers\stm32f4xx_it.c                   0x00000000   Number         0  stm32f4xx_it.o ABSOLUTE
    drivers\usart.c                          0x00000000   Number         0  usart.o ABSOLUTE
    uart_debug\DataScope_DP.C                0x00000000   Number         0  datascope_dp.o ABSOLUTE
    RESET                                    0x08000000   Section      392  startup_stm32f4xx.o(RESET)
    !!!main                                  0x08000188   Section        8  __main.o(!!!main)
    !!!scatter                               0x08000190   Section       52  __scatter.o(!!!scatter)
    !!dczerorl2                              0x080001c4   Section       90  __dczerorl2.o(!!dczerorl2)
    !!handler_zi                             0x08000220   Section       28  __scatter_zi.o(!!handler_zi)
    .ARM.Collect$$_printf_percent$$00000000  0x0800023c   Section        0  _printf_percent.o(.ARM.Collect$$_printf_percent$$00000000)
    .ARM.Collect$$_printf_percent$$00000003  0x0800023c   Section        6  _printf_f.o(.ARM.Collect$$_printf_percent$$00000003)
    .ARM.Collect$$_printf_percent$$00000017  0x08000242   Section        4  _printf_percent_end.o(.ARM.Collect$$_printf_percent$$00000017)
    .ARM.Collect$$libinit$$00000000          0x08000246   Section        6  libinit.o(.ARM.Collect$$libinit$$00000000)
    .ARM.Collect$$libinit$$00000006          0x0800024c   Section        0  libinit2.o(.ARM.Collect$$libinit$$00000006)
    .ARM.Collect$$libinit$$00000008          0x0800024c   Section        0  libinit2.o(.ARM.Collect$$libinit$$00000008)
    .ARM.Collect$$libinit$$0000000A          0x0800024c   Section        0  libinit2.o(.ARM.Collect$$libinit$$0000000A)
    .ARM.Collect$$libinit$$0000000B          0x0800024c   Section        6  libinit2.o(.ARM.Collect$$libinit$$0000000B)
    .ARM.Collect$$libinit$$0000000D          0x08000252   Section        0  libinit2.o(.ARM.Collect$$libinit$$0000000D)
    .ARM.Collect$$libinit$$0000000E          0x08000252   Section       12  libinit2.o(.ARM.Collect$$libinit$$0000000E)
    .ARM.Collect$$libinit$$0000000F          0x0800025e   Section        0  libinit2.o(.ARM.Collect$$libinit$$0000000F)
    .ARM.Collect$$libinit$$00000011          0x0800025e   Section        0  libinit2.o(.ARM.Collect$$libinit$$00000011)
    .ARM.Collect$$libinit$$00000012          0x0800025e   Section       10  libinit2.o(.ARM.Collect$$libinit$$00000012)
    .ARM.Collect$$libinit$$00000013          0x08000268   Section        0  libinit2.o(.ARM.Collect$$libinit$$00000013)
    .ARM.Collect$$libinit$$00000015          0x08000268   Section        0  libinit2.o(.ARM.Collect$$libinit$$00000015)
    .ARM.Collect$$libinit$$00000017          0x08000268   Section        0  libinit2.o(.ARM.Collect$$libinit$$00000017)
    .ARM.Collect$$libinit$$00000019          0x08000268   Section        0  libinit2.o(.ARM.Collect$$libinit$$00000019)
    .ARM.Collect$$libinit$$0000001B          0x08000268   Section        0  libinit2.o(.ARM.Collect$$libinit$$0000001B)
    .ARM.Collect$$libinit$$0000001D          0x08000268   Section        0  libinit2.o(.ARM.Collect$$libinit$$0000001D)
    .ARM.Collect$$libinit$$0000001F          0x08000268   Section        0  libinit2.o(.ARM.Collect$$libinit$$0000001F)
    .ARM.Collect$$libinit$$00000021          0x08000268   Section        0  libinit2.o(.ARM.Collect$$libinit$$00000021)
    .ARM.Collect$$libinit$$00000028          0x08000268   Section        0  libinit2.o(.ARM.Collect$$libinit$$00000028)
    .ARM.Collect$$libinit$$0000002A          0x08000268   Section        0  libinit2.o(.ARM.Collect$$libinit$$0000002A)
    .ARM.Collect$$libinit$$0000002C          0x08000268   Section        0  libinit2.o(.ARM.Collect$$libinit$$0000002C)
    .ARM.Collect$$libinit$$0000002E          0x08000268   Section        0  libinit2.o(.ARM.Collect$$libinit$$0000002E)
    .ARM.Collect$$libinit$$0000002F          0x08000268   Section        2  libinit2.o(.ARM.Collect$$libinit$$0000002F)
    .ARM.Collect$$libshutdown$$00000000      0x0800026a   Section        2  libshutdown.o(.ARM.Collect$$libshutdown$$00000000)
    .ARM.Collect$$libshutdown$$00000003      0x0800026c   Section        0  libshutdown2.o(.ARM.Collect$$libshutdown$$00000003)
    .ARM.Collect$$libshutdown$$00000006      0x0800026c   Section        0  libshutdown2.o(.ARM.Collect$$libshutdown$$00000006)
    .ARM.Collect$$libshutdown$$00000009      0x0800026c   Section        0  libshutdown2.o(.ARM.Collect$$libshutdown$$00000009)
    .ARM.Collect$$libshutdown$$0000000B      0x0800026c   Section        0  libshutdown2.o(.ARM.Collect$$libshutdown$$0000000B)
    .ARM.Collect$$libshutdown$$0000000E      0x0800026c   Section        0  libshutdown2.o(.ARM.Collect$$libshutdown$$0000000E)
    .ARM.Collect$$libshutdown$$0000000F      0x0800026c   Section        2  libshutdown2.o(.ARM.Collect$$libshutdown$$0000000F)
    .ARM.Collect$$rtentry$$00000000          0x0800026e   Section        0  rtentry.o(.ARM.Collect$$rtentry$$00000000)
    .ARM.Collect$$rtentry$$00000002          0x0800026e   Section        0  rtentry2.o(.ARM.Collect$$rtentry$$00000002)
    .ARM.Collect$$rtentry$$00000004          0x0800026e   Section        6  rtentry4.o(.ARM.Collect$$rtentry$$00000004)
    .ARM.Collect$$rtentry$$00000009          0x08000274   Section        0  rtentry2.o(.ARM.Collect$$rtentry$$00000009)
    .ARM.Collect$$rtentry$$0000000A          0x08000274   Section        4  rtentry2.o(.ARM.Collect$$rtentry$$0000000A)
    .ARM.Collect$$rtentry$$0000000C          0x08000278   Section        0  rtentry2.o(.ARM.Collect$$rtentry$$0000000C)
    .ARM.Collect$$rtentry$$0000000D          0x08000278   Section        8  rtentry2.o(.ARM.Collect$$rtentry$$0000000D)
    .ARM.Collect$$rtexit$$00000000           0x08000280   Section        2  rtexit.o(.ARM.Collect$$rtexit$$00000000)
    .ARM.Collect$$rtexit$$00000002           0x08000282   Section        0  rtexit2.o(.ARM.Collect$$rtexit$$00000002)
    .ARM.Collect$$rtexit$$00000003           0x08000282   Section        4  rtexit2.o(.ARM.Collect$$rtexit$$00000003)
    .ARM.Collect$$rtexit$$00000004           0x08000286   Section        6  rtexit2.o(.ARM.Collect$$rtexit$$00000004)
    .text                                    0x0800028c   Section        0  application.o(.text)
    .text                                    0x080002d4   Section        0  startup.o(.text)
    .text                                    0x080003a4   Section        0  heartbeat.o(.text)
    GPIO_Configuration                       0x080003a5   Thumb Code    46  heartbeat.o(.text)
    rt_thread_entry_heartbeat                0x080003d3   Thumb Code    72  heartbeat.o(.text)
    .text                                    0x08000464   Section        0  bluetooth_4_0.o(.text)
    rt_thread_entry_ble                      0x080004b7   Thumb Code    72  bluetooth_4_0.o(.text)
    .text                                    0x08000588   Section        0  mpu9250_app.o(.text)
    rt_thread_entry_mpu9250_app              0x080008df   Thumb Code   558  mpu9250_app.o(.text)
    .text                                    0x08000bf0   Section        0  board.o(.text)
    .text                                    0x08000ca0   Section        0  serial.o(.text)
    rt_serial_init                           0x08000ca1   Thumb Code   130  serial.o(.text)
    rt_serial_open                           0x08000d23   Thumb Code     6  serial.o(.text)
    rt_serial_close                          0x08000d29   Thumb Code     6  serial.o(.text)
    rt_serial_read                           0x08000d2f   Thumb Code   156  serial.o(.text)
    rt_serial_enable_dma                     0x08000dcb   Thumb Code    58  serial.o(.text)
    rt_serial_write                          0x08000e05   Thumb Code   268  serial.o(.text)
    rt_serial_control                        0x08000f11   Thumb Code    90  serial.o(.text)
    .text                                    0x080012a4   Section        0  stm32f4xx_it.o(.text)
    .text                                    0x080012e4   Section        0  usart.o(.text)
    RCC_Configuration                        0x080012e5   Thumb Code    36  usart.o(.text)
    GPIO_Configuration                       0x08001309   Thumb Code   120  usart.o(.text)
    NVIC_Configuration                       0x08001381   Thumb Code    58  usart.o(.text)
    .text                                    0x0800147c   Section        0  mpu9250.o(.text)
    MPU9250_WriteReg                         0x08001587   Thumb Code    40  mpu9250.o(.text)
    MPU9250_ReadReg                          0x080015af   Thumb Code    42  mpu9250.o(.text)
    MPU9250_ReadRegs                         0x080015d9   Thumb Code    62  mpu9250.o(.text)
    .text                                    0x08001700   Section        0  system_stm32f4xx.o(.text)
    SetSysClock                              0x08001701   Thumb Code   198  system_stm32f4xx.o(.text)
    .text                                    0x080018fc   Section        0  misc.o(.text)
    .text                                    0x08001ae8   Section        0  stm32f4xx_dma.o(.text)
    .text                                    0x08002ea0   Section        0  stm32f4xx_gpio.o(.text)
    .text                                    0x080037ac   Section        0  stm32f4xx_rcc.o(.text)
    .text                                    0x08004518   Section        0  stm32f4xx_spi.o(.text)
    .text                                    0x080050e4   Section        0  stm32f4xx_usart.o(.text)
    .text                                    0x08005f94   Section       64  startup_stm32f4xx.o(.text)
    $v0                                      0x08005f94   Number         0  startup_stm32f4xx.o(.text)
    .text                                    0x08005fd4   Section        0  clock.o(.text)
    .text                                    0x08006038   Section        0  device.o(.text)
    .text                                    0x08006440   Section        0  idle.o(.text)
    rt_thread_idle_entry                     0x080064f5   Thumb Code    20  idle.o(.text)
    rt_list_isempty                          0x0800652f   Thumb Code    16  idle.o(.text)
    .text                                    0x080065a8   Section        0  ipc.o(.text)
    rt_list_insert_before                    0x080065a9   Thumb Code    14  ipc.o(.text)
    rt_ipc_list_suspend                      0x080065b7   Thumb Code   108  ipc.o(.text)
    rt_ipc_list_resume_all                   0x08006623   Thumb Code    50  ipc.o(.text)
    rt_list_init                             0x08007f63   Thumb Code     6  ipc.o(.text)
    rt_list_isempty                          0x08007f69   Thumb Code    16  ipc.o(.text)
    rt_ipc_object_init                       0x08007f79   Thumb Code    16  ipc.o(.text)
    rt_ipc_list_resume                       0x08007f89   Thumb Code    24  ipc.o(.text)
    .text                                    0x08007fb8   Section        0  irq.o(.text)
    .text                                    0x08008000   Section        0  kservice.o(.text)
    print_number                             0x080082ad   Thumb Code   374  kservice.o(.text)
    skip_atoi                                0x08008423   Thumb Code    38  kservice.o(.text)
    .text                                    0x080089b4   Section        0  mem.o(.text)
    plug_holes                               0x080089c1   Thumb Code   200  mem.o(.text)
    .text                                    0x0800932c   Section        0  mempool.o(.text)
    rt_list_init                             0x080096cf   Thumb Code     6  mempool.o(.text)
    rt_list_isempty                          0x080096d5   Thumb Code    16  mempool.o(.text)
    .text                                    0x08009758   Section        0  object.o(.text)
    rt_list_insert_after                     0x08009759   Thumb Code    14  object.o(.text)
    rt_list_remove                           0x08009767   Thumb Code    18  object.o(.text)
    .text                                    0x08009a88   Section        0  scheduler.o(.text)
    _rt_scheduler_stack_check                0x08009a8f   Thumb Code    94  scheduler.o(.text)
    rt_list_init                             0x08009cf1   Thumb Code     6  scheduler.o(.text)
    .text                                    0x08009dac   Section        0  thread.o(.text)
    rt_list_insert_after                     0x08009dad   Thumb Code    14  thread.o(.text)
    rt_list_remove                           0x08009dbb   Thumb Code    18  thread.o(.text)
    rt_thread_exit                           0x08009dcd   Thumb Code    76  thread.o(.text)
    _rt_thread_init                          0x08009e73   Thumb Code   174  thread.o(.text)
    .text                                    0x0800a454   Section        0  timer.o(.text)
    rt_list_insert_after                     0x0800a455   Thumb Code    14  timer.o(.text)
    _rt_timer_init                           0x0800a469   Thumb Code    66  timer.o(.text)
    rt_timer_list_next_timeout               0x0800a4ab   Thumb Code    28  timer.o(.text)
    _rt_timer_remove                         0x0800a4c7   Thumb Code    46  timer.o(.text)
    rt_timer_count_height                    0x0800a4f5   Thumb Code    36  timer.o(.text)
    rt_list_init                             0x0800a989   Thumb Code     6  timer.o(.text)
    rt_list_isempty                          0x0800a98f   Thumb Code    16  timer.o(.text)
    .text                                    0x0800a9a8   Section        0  cpuport.o(.text)
    .text                                    0x0800ab58   Section      272  context_rvds.o(.text)
    $v0                                      0x0800ab58   Number         0  context_rvds.o(.text)
    .text                                    0x0800ac68   Section        0  cmd.o(.text)
    rt_list_len                              0x0800ac69   Thumb Code    20  cmd.o(.text)
    _list_thread                             0x0800ac93   Thumb Code   174  cmd.o(.text)
    show_wait_queue                          0x0800ad4b   Thumb Code    40  cmd.o(.text)
    _list_sem                                0x0800ad73   Thumb Code   128  cmd.o(.text)
    _list_event                              0x0800adff   Thumb Code   112  cmd.o(.text)
    _list_mutex                              0x0800ae7b   Thumb Code    82  cmd.o(.text)
    _list_mailbox                            0x0800aed9   Thumb Code   136  cmd.o(.text)
    _list_msgqueue                           0x0800af6d   Thumb Code   128  cmd.o(.text)
    _list_mempool                            0x0800aff9   Thumb Code   932  cmd.o(.text)
    _list_timer                              0x0800b3a7   Thumb Code    86  cmd.o(.text)
    _list_device                             0x0800b409   Thumb Code    78  cmd.o(.text)
    str_is_prefix                            0x0800b4e1   Thumb Code    34  cmd.o(.text)
    str_common                               0x0800b503   Thumb Code    32  cmd.o(.text)
    rt_list_isempty                          0x0800b6d5   Thumb Code    16  cmd.o(.text)
    .text                                    0x0800b850   Section        0  finsh_compiler.o(.text)
    finsh_compile                            0x0800b851   Thumb Code  5712  finsh_compiler.o(.text)
    finsh_type_check                         0x0800cea1   Thumb Code   350  finsh_compiler.o(.text)
    .text                                    0x0800d068   Section        0  finsh_error.o(.text)
    .text                                    0x0800d094   Section        0  finsh_heap.o(.text)
    finsh_block_insert                       0x0800d0b9   Thumb Code    62  finsh_heap.o(.text)
    finsh_block_remove                       0x0800d0f7   Thumb Code    46  finsh_heap.o(.text)
    finsh_block_split                        0x0800d125   Thumb Code    24  finsh_heap.o(.text)
    finsh_block_merge                        0x0800d13d   Thumb Code   124  finsh_heap.o(.text)
    finsh_heap_gc                            0x0800d1db   Thumb Code    78  finsh_heap.o(.text)
    .text                                    0x0800d2a4   Section        0  finsh_init.o(.text)
    .text                                    0x0800d2fc   Section        0  finsh_node.o(.text)
    .text                                    0x0800d480   Section        0  finsh_ops.o(.text)
    .text                                    0x0800df5c   Section        0  finsh_parser.o(.text)
    make_sys_node                            0x0800df5d   Thumb Code    40  finsh_parser.o(.text)
    proc_param_list                          0x0800df85   Thumb Code    76  finsh_parser.o(.text)
    proc_expr                                0x0800dfd1   Thumb Code    12  finsh_parser.o(.text)
    proc_identifier                          0x0800dfdd   Thumb Code    44  finsh_parser.o(.text)
    proc_primary_expr                        0x0800e009   Thumb Code   158  finsh_parser.o(.text)
    proc_postfix_expr                        0x0800e0a7   Thumb Code   162  finsh_parser.o(.text)
    proc_unary_expr                          0x0800e149   Thumb Code   190  finsh_parser.o(.text)
    proc_type                                0x0800e207   Thumb Code   250  finsh_parser.o(.text)
    proc_cast_expr                           0x0800e301   Thumb Code    78  finsh_parser.o(.text)
    proc_multiplicative_expr                 0x0800e34f   Thumb Code   138  finsh_parser.o(.text)
    proc_additive_expr                       0x0800e3d9   Thumb Code   114  finsh_parser.o(.text)
    proc_shift_expr                          0x0800e44b   Thumb Code   116  finsh_parser.o(.text)
    proc_and_expr                            0x0800e4bf   Thumb Code    76  finsh_parser.o(.text)
    proc_exclusive_or_expr                   0x0800e50b   Thumb Code    76  finsh_parser.o(.text)
    proc_inclusive_or_expr                   0x0800e557   Thumb Code    76  finsh_parser.o(.text)
    proc_assign_expr                         0x0800e5a3   Thumb Code    56  finsh_parser.o(.text)
    proc_variable_decl                       0x0800e5db   Thumb Code   474  finsh_parser.o(.text)
    proc_expr_statement                      0x0800e7b5   Thumb Code    56  finsh_parser.o(.text)
    .text                                    0x0800e8d8   Section        0  finsh_token.o(.text)
    token_prev_char                          0x0800e8ed   Thumb Code    22  finsh_token.o(.text)
    token_next_char                          0x0800e903   Thumb Code    62  finsh_token.o(.text)
    token_spec_number                        0x0800e941   Thumb Code   152  finsh_token.o(.text)
    token_proc_number                        0x0800e9d9   Thumb Code   260  finsh_token.o(.text)
    token_proc_escape                        0x0800eadd   Thumb Code   174  finsh_token.o(.text)
    token_proc_string                        0x0800eb8b   Thumb Code    80  finsh_token.o(.text)
    token_proc_char                          0x0800ebdb   Thumb Code   162  finsh_token.o(.text)
    token_match_name                         0x0800ec7d   Thumb Code    48  finsh_token.o(.text)
    token_trim_space                         0x0800ed25   Thumb Code    34  finsh_token.o(.text)
    token_run                                0x0800ed47   Thumb Code   414  finsh_token.o(.text)
    .text                                    0x0800ef14   Section        0  finsh_var.o(.text)
    .text                                    0x0800f0ac   Section        0  finsh_vm.o(.text)
    .text                                    0x0800f190   Section        0  shell.o(.text)
    finsh_rx_ind                             0x0800f191   Thumb Code    46  shell.o(.text)
    shell_auto_complete                      0x0800f2bd   Thumb Code    28  shell.o(.text)
    shell_handle_history                     0x0800f36d   Thumb Code    26  shell.o(.text)
    shell_push_history                       0x0800f387   Thumb Code   162  shell.o(.text)
    .text                                    0x0800fb5c   Section        0  datascope_dp.o(.text)
    .text                                    0x0800fcb4   Section        0  algorithm_ahrs.o(.text)
    .text                                    0x0800fff8   Section        0  algorithm_quaternion.o(.text)
    .text                                    0x08010400   Section        0  kalman_filter.o(.text)
    .text                                    0x08010564   Section        0  noretval__2sprintf.o(.text)
    .text                                    0x0801058c   Section        0  _printf_pad.o(.text)
    .text                                    0x080105de   Section        0  __printf_wp.o(.text)
    .text                                    0x080106ec   Section        0  atoi.o(.text)
    .text                                    0x08010706   Section        0  strlen.o(.text)
    .text                                    0x08010744   Section        0  strncmp.o(.text)
    .text                                    0x080107da   Section      138  rt_memcpy_v6.o(.text)
    .text                                    0x08010864   Section      100  rt_memcpy_w.o(.text)
    .text                                    0x080108c8   Section       68  rt_memclr.o(.text)
    .text                                    0x0801090c   Section       78  rt_memclr_w.o(.text)
    .text                                    0x0801095a   Section       86  strncpy.o(.text)
    .text                                    0x080109b0   Section      128  strcmpv7m.o(.text)
    .text                                    0x08010a30   Section        0  heapauxi.o(.text)
    .text                                    0x08010a38   Section        8  rt_errno_addr_intlibspace.o(.text)
    .text                                    0x08010a40   Section        0  _rserrno.o(.text)
    .text                                    0x08010a56   Section        0  _printf_fp_dec.o(.text)
    _fp_digits                               0x08010a59   Thumb Code   428  _printf_fp_dec.o(.text)
    .text                                    0x08010e78   Section        0  _printf_char_common.o(.text)
    _printf_input_char                       0x08010e79   Thumb Code    10  _printf_char_common.o(.text)
    .text                                    0x08010ea8   Section        0  _sputc.o(.text)
    .text                                    0x08010eb2   Section        0  strtol.o(.text)
    .text                                    0x08010f24   Section        8  libspace.o(.text)
    .text                                    0x08010f2c   Section       16  rt_ctype_table.o(.text)
    .text                                    0x08010f3c   Section        8  rt_locale_intlibspace.o(.text)
    .text                                    0x08010f44   Section      138  lludiv10.o(.text)
    .text                                    0x08010fd0   Section        0  _printf_fp_infnan.o(.text)
    .text                                    0x08011050   Section        0  _strtoul.o(.text)
    .text                                    0x080110f0   Section        0  bigflt0.o(.text)
    .text                                    0x080111d4   Section       74  sys_stackheap_outer.o(.text)
    .text                                    0x0801121e   Section        0  _chval.o(.text)
    .text                                    0x0801123a   Section        0  exit.o(.text)
    .text                                    0x08011248   Section        0  sys_exit.o(.text)
    .text                                    0x08011254   Section        2  use_no_semi.o(.text)
    .text                                    0x08011256   Section        0  indicate_semi.o(.text)
    CL$$btod_d2e                             0x08011256   Section       62  btod.o(CL$$btod_d2e)
    CL$$btod_d2e_denorm_low                  0x08011294   Section       70  btod.o(CL$$btod_d2e_denorm_low)
    CL$$btod_d2e_norm_op1                    0x080112da   Section       96  btod.o(CL$$btod_d2e_norm_op1)
    CL$$btod_div_common                      0x0801133a   Section      824  btod.o(CL$$btod_div_common)
    CL$$btod_e2e                             0x08011672   Section      198  btod.o(CL$$btod_e2e)
    CL$$btod_ediv                            0x08011738   Section       40  btod.o(CL$$btod_ediv)
    CL$$btod_emul                            0x08011760   Section       40  btod.o(CL$$btod_emul)
    CL$$btod_mult_common                     0x08011788   Section      580  btod.o(CL$$btod_mult_common)
    i.__ARM_fpclassify                       0x080119cc   Section        0  fpclassify.o(i.__ARM_fpclassify)
    i.__ARM_fpclassifyf                      0x080119fc   Section        0  fpclassifyf.o(i.__ARM_fpclassifyf)
    i.__hardfp_asinf                         0x08011a24   Section        0  asinf.o(i.__hardfp_asinf)
    i.__hardfp_atan2f                        0x08011b48   Section        0  atan2f.o(i.__hardfp_atan2f)
    i.__hardfp_cosf                          0x08011d90   Section        0  cosf.o(i.__hardfp_cosf)
    i.__hardfp_sinf                          0x08011ef0   Section        0  sinf.o(i.__hardfp_sinf)
    i.__hardfp_sqrtf                         0x08012068   Section        0  sqrtf.o(i.__hardfp_sqrtf)
    i.__mathlib_flt_underflow                0x080120a4   Section        0  funder.o(i.__mathlib_flt_underflow)
    i.__mathlib_rredf2                       0x080120b4   Section        0  rredf.o(i.__mathlib_rredf2)
    i._is_digit                              0x080121f4   Section        0  __printf_wp.o(i._is_digit)
    i.sqrtf                                  0x08012202   Section        0  sqrtf.o(i.sqrtf)
    locale$$code                             0x08012240   Section       44  lc_numeric_c.o(locale$$code)
    locale$$code                             0x0801226c   Section       44  lc_ctype_c.o(locale$$code)
    x$fpl$d2f                                0x08012298   Section       98  d2f.o(x$fpl$d2f)
    $v0                                      0x08012298   Number         0  d2f.o(x$fpl$d2f)
    x$fpl$dadd                               0x080122fc   Section      336  daddsub_clz.o(x$fpl$dadd)
    $v0                                      0x080122fc   Number         0  daddsub_clz.o(x$fpl$dadd)
    _dadd1                                   0x0801230d   Thumb Code     0  daddsub_clz.o(x$fpl$dadd)
    x$fpl$ddiv                               0x0801244c   Section      688  ddiv.o(x$fpl$ddiv)
    $v0                                      0x0801244c   Number         0  ddiv.o(x$fpl$ddiv)
    ddiv_entry                               0x08012453   Thumb Code     0  ddiv.o(x$fpl$ddiv)
    x$fpl$dfix                               0x080126fc   Section       94  dfix.o(x$fpl$dfix)
    $v0                                      0x080126fc   Number         0  dfix.o(x$fpl$dfix)
    x$fpl$dflt                               0x0801275a   Section       46  dflt_clz.o(x$fpl$dflt)
    $v0                                      0x0801275a   Number         0  dflt_clz.o(x$fpl$dflt)
    x$fpl$dmul                               0x08012788   Section      340  dmul.o(x$fpl$dmul)
    $v0                                      0x08012788   Number         0  dmul.o(x$fpl$dmul)
    x$fpl$dnaninf                            0x080128dc   Section      156  dnaninf.o(x$fpl$dnaninf)
    $v0                                      0x080128dc   Number         0  dnaninf.o(x$fpl$dnaninf)
    x$fpl$dretinf                            0x08012978   Section       12  dretinf.o(x$fpl$dretinf)
    $v0                                      0x08012978   Number         0  dretinf.o(x$fpl$dretinf)
    x$fpl$dsub                               0x08012984   Section      468  daddsub_clz.o(x$fpl$dsub)
    $v0                                      0x08012984   Number         0  daddsub_clz.o(x$fpl$dsub)
    _dsub1                                   0x08012995   Thumb Code     0  daddsub_clz.o(x$fpl$dsub)
    x$fpl$f2d                                0x08012b58   Section       86  f2d.o(x$fpl$f2d)
    $v0                                      0x08012b58   Number         0  f2d.o(x$fpl$f2d)
    x$fpl$fnaninf                            0x08012bae   Section      140  fnaninf.o(x$fpl$fnaninf)
    $v0                                      0x08012bae   Number         0  fnaninf.o(x$fpl$fnaninf)
    x$fpl$fpinit                             0x08012c3a   Section       10  fpinit.o(x$fpl$fpinit)
    $v0                                      0x08012c3a   Number         0  fpinit.o(x$fpl$fpinit)
    x$fpl$fretinf                            0x08012c44   Section       10  fretinf.o(x$fpl$fretinf)
    $v0                                      0x08012c44   Number         0  fretinf.o(x$fpl$fretinf)
    x$fpl$printf1                            0x08012c4e   Section        4  printf1.o(x$fpl$printf1)
    $v0                                      0x08012c4e   Number         0  printf1.o(x$fpl$printf1)
    .constdata                               0x08012c52   Section      133  serial.o(.constdata)
    x$fpl$usenofp                            0x08012c52   Section        0  usenofp.o(x$fpl$usenofp)
    __FUNCTION__                             0x08012c52   Data          15  serial.o(.constdata)
    __FUNCTION__                             0x08012c61   Data          21  serial.o(.constdata)
    __FUNCTION__                             0x08012c76   Data          16  serial.o(.constdata)
    __FUNCTION__                             0x08012c86   Data          18  serial.o(.constdata)
    __FUNCTION__                             0x08012c98   Data          22  serial.o(.constdata)
    __FUNCTION__                             0x08012cae   Data          17  serial.o(.constdata)
    __FUNCTION__                             0x08012cbf   Data          24  serial.o(.constdata)
    .constdata                               0x08012cd8   Section       28  mpu9250.o(.constdata)
    .constdata                               0x08012cf4   Section      168  device.o(.constdata)
    __FUNCTION__                             0x08012cf4   Data          21  device.o(.constdata)
    __FUNCTION__                             0x08012d09   Data          15  device.o(.constdata)
    __FUNCTION__                             0x08012d18   Data          15  device.o(.constdata)
    __FUNCTION__                             0x08012d27   Data          16  device.o(.constdata)
    __FUNCTION__                             0x08012d37   Data          15  device.o(.constdata)
    __FUNCTION__                             0x08012d46   Data          16  device.o(.constdata)
    __FUNCTION__                             0x08012d56   Data          18  device.o(.constdata)
    __FUNCTION__                             0x08012d68   Data          26  device.o(.constdata)
    __FUNCTION__                             0x08012d82   Data          26  device.o(.constdata)
    .constdata                               0x08012d9c   Section       22  idle.o(.constdata)
    __FUNCTION__                             0x08012d9c   Data          22  idle.o(.constdata)
    .constdata                               0x08012db2   Section      471  ipc.o(.constdata)
    __FUNCTION__                             0x08012db2   Data          12  ipc.o(.constdata)
    __FUNCTION__                             0x08012dbe   Data          14  ipc.o(.constdata)
    __FUNCTION__                             0x08012dcc   Data          14  ipc.o(.constdata)
    __FUNCTION__                             0x08012dda   Data          14  ipc.o(.constdata)
    __FUNCTION__                             0x08012de8   Data          12  ipc.o(.constdata)
    __FUNCTION__                             0x08012df4   Data          15  ipc.o(.constdata)
    __FUNCTION__                             0x08012e03   Data          14  ipc.o(.constdata)
    __FUNCTION__                             0x08012e11   Data          16  ipc.o(.constdata)
    __FUNCTION__                             0x08012e21   Data          16  ipc.o(.constdata)
    __FUNCTION__                             0x08012e31   Data          16  ipc.o(.constdata)
    __FUNCTION__                             0x08012e41   Data          14  ipc.o(.constdata)
    __FUNCTION__                             0x08012e4f   Data          17  ipc.o(.constdata)
    __FUNCTION__                             0x08012e60   Data          14  ipc.o(.constdata)
    __FUNCTION__                             0x08012e6e   Data          16  ipc.o(.constdata)
    __FUNCTION__                             0x08012e7e   Data          16  ipc.o(.constdata)
    __FUNCTION__                             0x08012e8e   Data          16  ipc.o(.constdata)
    __FUNCTION__                             0x08012e9e   Data          14  ipc.o(.constdata)
    __FUNCTION__                             0x08012eac   Data          14  ipc.o(.constdata)
    __FUNCTION__                             0x08012eba   Data          17  ipc.o(.constdata)
    __FUNCTION__                             0x08012ecb   Data          11  ipc.o(.constdata)
    __FUNCTION__                             0x08012ed6   Data          13  ipc.o(.constdata)
    __FUNCTION__                             0x08012ee3   Data          13  ipc.o(.constdata)
    __FUNCTION__                             0x08012ef0   Data          13  ipc.o(.constdata)
    __FUNCTION__                             0x08012efd   Data          16  ipc.o(.constdata)
    __FUNCTION__                             0x08012f0d   Data          11  ipc.o(.constdata)
    __FUNCTION__                             0x08012f18   Data          14  ipc.o(.constdata)
    __FUNCTION__                             0x08012f26   Data          11  ipc.o(.constdata)
    __FUNCTION__                             0x08012f31   Data          13  ipc.o(.constdata)
    __FUNCTION__                             0x08012f3e   Data          13  ipc.o(.constdata)
    __FUNCTION__                             0x08012f4b   Data          13  ipc.o(.constdata)
    __FUNCTION__                             0x08012f58   Data          11  ipc.o(.constdata)
    __FUNCTION__                             0x08012f63   Data          13  ipc.o(.constdata)
    __FUNCTION__                             0x08012f70   Data          11  ipc.o(.constdata)
    __FUNCTION__                             0x08012f7b   Data          14  ipc.o(.constdata)
    .constdata                               0x08012f89   Section      290  kservice.o(.constdata)
    small_digits                             0x08013089   Data          17  kservice.o(.constdata)
    large_digits                             0x0801309a   Data          17  kservice.o(.constdata)
    .constdata                               0x080130ac   Section      352  mem.o(.constdata)
    __FUNCTION__                             0x080130d3   Data          11  mem.o(.constdata)
    __FUNCTION__                             0x080130de   Data          20  mem.o(.constdata)
    __FUNCTION__                             0x080130f2   Data          10  mem.o(.constdata)
    __FUNCTION__                             0x080130fc   Data          11  mem.o(.constdata)
    __FUNCTION__                             0x08013107   Data          10  mem.o(.constdata)
    __FUNCTION__                             0x08013111   Data           8  mem.o(.constdata)
    .constdata                               0x0801320c   Section       62  mempool.o(.constdata)
    __FUNCTION__                             0x0801320c   Data          11  mempool.o(.constdata)
    __FUNCTION__                             0x08013217   Data          13  mempool.o(.constdata)
    __FUNCTION__                             0x08013224   Data          13  mempool.o(.constdata)
    __FUNCTION__                             0x08013231   Data          13  mempool.o(.constdata)
    __FUNCTION__                             0x0801323e   Data          12  mempool.o(.constdata)
    .constdata                               0x0801324a   Section       94  object.o(.constdata)
    __FUNCTION__                             0x0801324a   Data          17  object.o(.constdata)
    __FUNCTION__                             0x0801325b   Data          19  object.o(.constdata)
    __FUNCTION__                             0x0801326e   Data          17  object.o(.constdata)
    __FUNCTION__                             0x0801327f   Data          26  object.o(.constdata)
    __FUNCTION__                             0x08013299   Data          15  object.o(.constdata)
    .constdata                               0x080132a8   Section       78  scheduler.o(.constdata)
    __FUNCTION__                             0x080132a8   Data          26  scheduler.o(.constdata)
    __FUNCTION__                             0x080132c2   Data          26  scheduler.o(.constdata)
    __FUNCTION__                             0x080132dc   Data          26  scheduler.o(.constdata)
    .constdata                               0x080132f6   Section      170  thread.o(.constdata)
    __FUNCTION__                             0x080132f6   Data          16  thread.o(.constdata)
    __FUNCTION__                             0x08013306   Data          15  thread.o(.constdata)
    __FUNCTION__                             0x08013315   Data          18  thread.o(.constdata)
    __FUNCTION__                             0x08013327   Data          17  thread.o(.constdata)
    __FUNCTION__                             0x08013338   Data          17  thread.o(.constdata)
    __FUNCTION__                             0x08013349   Data          16  thread.o(.constdata)
    __FUNCTION__                             0x08013359   Data          18  thread.o(.constdata)
    __FUNCTION__                             0x0801336b   Data          18  thread.o(.constdata)
    __FUNCTION__                             0x0801337d   Data          17  thread.o(.constdata)
    __FUNCTION__                             0x0801338e   Data          18  thread.o(.constdata)
    .constdata                               0x080133a0   Section       92  timer.o(.constdata)
    __FUNCTION__                             0x080133a0   Data          14  timer.o(.constdata)
    __FUNCTION__                             0x080133ae   Data          16  timer.o(.constdata)
    __FUNCTION__                             0x080133be   Data          16  timer.o(.constdata)
    __FUNCTION__                             0x080133ce   Data          15  timer.o(.constdata)
    __FUNCTION__                             0x080133dd   Data          14  timer.o(.constdata)
    __FUNCTION__                             0x080133eb   Data          17  timer.o(.constdata)
    .constdata                               0x080133fc   Section       19  cpuport.o(.constdata)
    __FUNCTION__                             0x080133fc   Data          19  cpuport.o(.constdata)
    .constdata                               0x08013410   Section      659  cmd.o(.constdata)
    .constdata                               0x080136a4   Section      196  finsh_ops.o(.constdata)
    .constdata                               0x08013768   Section       64  finsh_token.o(.constdata)
    finsh_name_table                         0x08013768   Data          64  finsh_token.o(.constdata)
    .constdata                               0x080137a8   Section       96  shell.o(.constdata)
    __FUNCTION__                             0x080137a8   Data          13  shell.o(.constdata)
    __FUNCTION__                             0x080137b5   Data          17  shell.o(.constdata)
    __FUNCTION__                             0x080137c6   Data          17  shell.o(.constdata)
    __FUNCTION__                             0x080137d7   Data          15  shell.o(.constdata)
    __FUNCTION__                             0x080137e6   Data          15  shell.o(.constdata)
    __FUNCTION__                             0x080137f5   Data          19  shell.o(.constdata)
    .constdata                               0x08013808   Section       32  rredf.o(.constdata)
    twooverpi                                0x08013808   Data          32  rredf.o(.constdata)
    .constdata                               0x08013828   Section      148  bigflt0.o(.constdata)
    tenpwrs_x                                0x08013828   Data          60  bigflt0.o(.constdata)
    tenpwrs_i                                0x08013864   Data          64  bigflt0.o(.constdata)
    .conststring                             0x080138bc   Section      233  cmd.o(.conststring)
    .conststring                             0x080139a5   Section      216  finsh_error.o(.conststring)
    .conststring                             0x08013a7d   Section       44  finsh_token.o(.conststring)
    FSymTab                                  0x08013aac   Section       12  mem.o(FSymTab)
    FSymTab                                  0x08013ab8   Section      144  cmd.o(FSymTab)
    VSymTab                                  0x08013b68   Section       16  cmd.o(VSymTab)
    locale$$data                             0x08013b78   Section       28  lc_numeric_c.o(locale$$data)
    __lcnum_c_name                           0x08013b7c   Data           2  lc_numeric_c.o(locale$$data)
    __lcnum_c_start                          0x08013b84   Data           0  lc_numeric_c.o(locale$$data)
    __lcnum_c_point                          0x08013b90   Data           0  lc_numeric_c.o(locale$$data)
    __lcnum_c_thousands                      0x08013b92   Data           0  lc_numeric_c.o(locale$$data)
    __lcnum_c_grouping                       0x08013b93   Data           0  lc_numeric_c.o(locale$$data)
    locale$$data                             0x08013b94   Section      272  lc_ctype_c.o(locale$$data)
    __lcnum_c_end                            0x08013b94   Data           0  lc_numeric_c.o(locale$$data)
    __lcctype_c_name                         0x08013b98   Data           2  lc_ctype_c.o(locale$$data)
    __lcctype_c_start                        0x08013ba0   Data           0  lc_ctype_c.o(locale$$data)
    __lcctype_c_end                          0x08013ca4   Data           0  lc_ctype_c.o(locale$$data)
    .data                                    0x20000000   Section      136  bluetooth_4_0.o(.data)
    ble_rx_mq                                0x20000078   Data           4  bluetooth_4_0.o(.data)
    .data                                    0x20000088   Section        8  mpu9250_app.o(.data)
    .data                                    0x20000090   Section       28  usart.o(.data)
    .data                                    0x200000ac   Section       20  system_stm32f4xx.o(.data)
    .data                                    0x200000c0   Section       16  stm32f4xx_rcc.o(.data)
    APBAHBPrescTable                         0x200000c0   Data          16  stm32f4xx_rcc.o(.data)
    .data                                    0x200000d0   Section        4  clock.o(.data)
    rt_tick                                  0x200000d0   Data           4  clock.o(.data)
    .data                                    0x200000d4   Section        4  idle.o(.data)
    rt_thread_idle_hook                      0x200000d4   Data           4  idle.o(.data)
    .data                                    0x200000d8   Section        1  irq.o(.data)
    .data                                    0x200000dc   Section        8  kservice.o(.data)
    _console_device                          0x200000dc   Data           4  kservice.o(.data)
    _errno                                   0x200000e0   Data           4  kservice.o(.data)
    .data                                    0x200000e4   Section       32  mem.o(.data)
    rt_malloc_hook                           0x200000e4   Data           4  mem.o(.data)
    rt_free_hook                             0x200000e8   Data           4  mem.o(.data)
    heap_ptr                                 0x200000ec   Data           4  mem.o(.data)
    heap_end                                 0x200000f0   Data           4  mem.o(.data)
    lfree                                    0x200000f4   Data           4  mem.o(.data)
    mem_size_aligned                         0x200000f8   Data           4  mem.o(.data)
    used_mem                                 0x200000fc   Data           4  mem.o(.data)
    max_mem                                  0x20000100   Data           4  mem.o(.data)
    .data                                    0x20000104   Section        8  mempool.o(.data)
    rt_mp_alloc_hook                         0x20000104   Data           4  mempool.o(.data)
    rt_mp_free_hook                          0x20000108   Data           4  mempool.o(.data)
    .data                                    0x2000010c   Section      164  object.o(.data)
    rt_object_attach_hook                    0x2000019c   Data           4  object.o(.data)
    rt_object_detach_hook                    0x200001a0   Data           4  object.o(.data)
    .data                                    0x200001b0   Section       28  scheduler.o(.data)
    rt_scheduler_lock_nest                   0x200001b0   Data           2  scheduler.o(.data)
    rt_scheduler_hook                        0x200001c8   Data           4  scheduler.o(.data)
    .data                                    0x200001cc   Section       16  timer.o(.data)
    random_nr                                0x200001cc   Data           4  timer.o(.data)
    rt_timer_list                            0x200001d0   Data           8  timer.o(.data)
    rt_timer_timeout_hook                    0x200001d8   Data           4  timer.o(.data)
    .data                                    0x200001dc   Section       16  cpuport.o(.data)
    rt_exception_hook                        0x200001dc   Data           4  cpuport.o(.data)
    .data                                    0x200001ec   Section        4  cmd.o(.data)
    dummy                                    0x200001ec   Data           4  cmd.o(.data)
    .data                                    0x200001f0   Section        8  finsh_compiler.o(.data)
    .data                                    0x200001f8   Section       61  finsh_error.o(.data)
    finsh_error_string_table                 0x200001f8   Data          60  finsh_error.o(.data)
    .data                                    0x20000238   Section        8  finsh_heap.o(.data)
    free_list                                0x20000238   Data           4  finsh_heap.o(.data)
    allocate_list                            0x2000023c   Data           4  finsh_heap.o(.data)
    .data                                    0x20000240   Section        4  finsh_var.o(.data)
    .data                                    0x20000244   Section       12  finsh_vm.o(.data)
    .data                                    0x20000250   Section        4  shell.o(.data)
    .data                                    0x20000254   Section       16  symbol.o(.data)
    .data                                    0x20000264   Section       16  algorithm_ahrs.o(.data)
    AngZ_Temp                                0x20000264   Data           4  algorithm_ahrs.o(.data)
    exInt                                    0x20000268   Data           4  algorithm_ahrs.o(.data)
    eyInt                                    0x2000026c   Data           4  algorithm_ahrs.o(.data)
    ezInt                                    0x20000270   Data           4  algorithm_ahrs.o(.data)
    .data                                    0x20000274   Section       16  algorithm_quaternion.o(.data)
    .data                                    0x20000284   Section       12  kalman_filter.o(.data)
    .bss                                     0x20000290   Section      640  heartbeat.o(.bss)
    thread_heartbeat_stack                   0x20000290   Data         512  heartbeat.o(.bss)
    .bss                                     0x20000510   Section     2348  bluetooth_4_0.o(.bss)
    thread_ble_stack                         0x20000588   Data        1024  bluetooth_4_0.o(.bss)
    s_your_mq                                0x20000a08   Data          52  bluetooth_4_0.o(.bss)
    s_msg_pool                               0x20000a3c   Data        1024  bluetooth_4_0.o(.bss)
    .bss                                     0x20000e40   Section     1264  mpu9250_app.o(.bss)
    thread_mpu9250_app_stack                 0x20000eb0   Data        1024  mpu9250_app.o(.bss)
    .bss                                     0x20001330   Section      272  usart.o(.bss)
    .bss                                     0x20001440   Section     1152  idle.o(.bss)
    idle                                     0x20001440   Data         128  idle.o(.bss)
    rt_thread_stack                          0x200014c0   Data        1024  idle.o(.bss)
    .bss                                     0x200018c0   Section      128  kservice.o(.bss)
    rt_log_buf                               0x200018c0   Data         128  kservice.o(.bss)
    .bss                                     0x20001940   Section       32  mem.o(.bss)
    heap_sem                                 0x20001940   Data          32  mem.o(.bss)
    .bss                                     0x20001960   Section      256  scheduler.o(.bss)
    .bss                                     0x20001a60   Section      128  finsh_heap.o(.bss)
    .bss                                     0x20001ae0   Section      320  finsh_node.o(.bss)
    .bss                                     0x20001c20   Section      192  finsh_var.o(.bss)
    .bss                                     0x20001ce0   Section      384  finsh_vm.o(.bss)
    .bss                                     0x20001e60   Section     2176  shell.o(.bss)
    finsh_thread                             0x20001e60   Data         128  shell.o(.bss)
    finsh_thread_stack                       0x20001ee0   Data        2048  shell.o(.bss)
    .bss                                     0x200026e0   Section       42  datascope_dp.o(.bss)
    .bss                                     0x2000270c   Section       12  algorithm_quaternion.o(.bss)
    .bss                                     0x20002718   Section       96  libspace.o(.bss)
    HEAP                                     0x20002778   Section      512  startup_stm32f4xx.o(HEAP)
    Heap_Mem                                 0x20002778   Data         512  startup_stm32f4xx.o(HEAP)
    STACK                                    0x20002978   Section     1024  startup_stm32f4xx.o(STACK)
    Stack_Mem                                0x20002978   Data        1024  startup_stm32f4xx.o(STACK)
    __initial_sp                             0x20002d78   Data           0  startup_stm32f4xx.o(STACK)

    Global Symbols

    Symbol Name                              Value     Ov Type        Size  Object(Section)

    BuildAttributes$$THM_ISAv4$E$P$D$K$B$S$7EM$VFPi3$EXTD16$VFPS$VFMA$PE$A:L22UL41UL21$X:L11$S22US41US21$IEEE1$IW$USESV6$~STKCKD$USESV7$~SHL$OTIME$ROPI$IEEEX$EBA8$UX$STANDARDLIB$REQ8$PRES8$EABIv2 0x00000000   Number         0  anon$$obj.o ABSOLUTE
    __ARM_use_no_argv                        0x00000000   Number         0  startup.o ABSOLUTE
    _printf_flags                            0x00000000   Number         0  printf_stubs.o ABSOLUTE
    _printf_return_value                     0x00000000   Number         0  printf_stubs.o ABSOLUTE
    _printf_sizespec                         0x00000000   Number         0  printf_stubs.o ABSOLUTE
    _printf_widthprec                        0x00000000   Number         0  printf_stubs.o ABSOLUTE
    __ARM_exceptions_init                     - Undefined Weak Reference
    __alloca_initialize                       - Undefined Weak Reference
    __cpp_initialize__aeabi_                  - Undefined Weak Reference
    __cxa_finalize                            - Undefined Weak Reference
    __sigvec_lookup                           - Undefined Weak Reference
    _atexit_init                              - Undefined Weak Reference
    _call_atexit_fns                          - Undefined Weak Reference
    _clock_init                               - Undefined Weak Reference
    _fp_trap_init                             - Undefined Weak Reference
    _fp_trap_shutdown                         - Undefined Weak Reference
    _get_lc_collate                           - Undefined Weak Reference
    _get_lc_monetary                          - Undefined Weak Reference
    _get_lc_time                              - Undefined Weak Reference
    _getenv_init                              - Undefined Weak Reference
    _handle_redirection                       - Undefined Weak Reference
    _init_alloc                               - Undefined Weak Reference
    _init_user_alloc                          - Undefined Weak Reference
    _initio                                   - Undefined Weak Reference
    _rand_init                                - Undefined Weak Reference
    _signal_finish                            - Undefined Weak Reference
    _signal_init                              - Undefined Weak Reference
    _terminate_alloc                          - Undefined Weak Reference
    _terminate_user_alloc                     - Undefined Weak Reference
    _terminateio                              - Undefined Weak Reference
    __Vectors_Size                           0x00000188   Number         0  startup_stm32f4xx.o ABSOLUTE
    __Vectors                                0x08000000   Data           4  startup_stm32f4xx.o(RESET)
    __Vectors_End                            0x08000188   Data           0  startup_stm32f4xx.o(RESET)
    __main                                   0x08000189   Thumb Code     8  __main.o(!!!main)
    __scatterload                            0x08000191   Thumb Code     0  __scatter.o(!!!scatter)
    __scatterload_rt2                        0x08000191   Thumb Code    44  __scatter.o(!!!scatter)
    __scatterload_rt2_thumb_only             0x08000191   Thumb Code     0  __scatter.o(!!!scatter)
    __scatterload_null                       0x0800019f   Thumb Code     0  __scatter.o(!!!scatter)
    __decompress                             0x080001c5   Thumb Code    90  __dczerorl2.o(!!dczerorl2)
    __decompress1                            0x080001c5   Thumb Code     0  __dczerorl2.o(!!dczerorl2)
    __scatterload_zeroinit                   0x08000221   Thumb Code    28  __scatter_zi.o(!!handler_zi)
    _printf_f                                0x0800023d   Thumb Code     0  _printf_f.o(.ARM.Collect$$_printf_percent$$00000003)
    _printf_percent                          0x0800023d   Thumb Code     0  _printf_percent.o(.ARM.Collect$$_printf_percent$$00000000)
    _printf_percent_end                      0x08000243   Thumb Code     0  _printf_percent_end.o(.ARM.Collect$$_printf_percent$$00000017)
    __rt_lib_init                            0x08000247   Thumb Code     0  libinit.o(.ARM.Collect$$libinit$$00000000)
    __rt_lib_init_heap_1                     0x0800024d   Thumb Code     0  libinit2.o(.ARM.Collect$$libinit$$00000006)
    __rt_lib_init_lc_common                  0x0800024d   Thumb Code     0  libinit2.o(.ARM.Collect$$libinit$$0000000B)
    __rt_lib_init_rand_1                     0x0800024d   Thumb Code     0  libinit2.o(.ARM.Collect$$libinit$$0000000A)
    __rt_lib_init_user_alloc_1               0x0800024d   Thumb Code     0  libinit2.o(.ARM.Collect$$libinit$$00000008)
    __rt_lib_init_lc_collate_1               0x08000253   Thumb Code     0  libinit2.o(.ARM.Collect$$libinit$$0000000D)
    __rt_lib_init_lc_ctype_2                 0x08000253   Thumb Code     0  libinit2.o(.ARM.Collect$$libinit$$0000000E)
    __rt_lib_init_lc_ctype_1                 0x0800025f   Thumb Code     0  libinit2.o(.ARM.Collect$$libinit$$0000000F)
    __rt_lib_init_lc_monetary_1              0x0800025f   Thumb Code     0  libinit2.o(.ARM.Collect$$libinit$$00000011)
    __rt_lib_init_lc_numeric_2               0x0800025f   Thumb Code     0  libinit2.o(.ARM.Collect$$libinit$$00000012)
    __rt_lib_init_alloca_1                   0x08000269   Thumb Code     0  libinit2.o(.ARM.Collect$$libinit$$0000002A)
    __rt_lib_init_argv_1                     0x08000269   Thumb Code     0  libinit2.o(.ARM.Collect$$libinit$$00000028)
    __rt_lib_init_atexit_1                   0x08000269   Thumb Code     0  libinit2.o(.ARM.Collect$$libinit$$00000017)
    __rt_lib_init_clock_1                    0x08000269   Thumb Code     0  libinit2.o(.ARM.Collect$$libinit$$0000001D)
    __rt_lib_init_cpp_1                      0x08000269   Thumb Code     0  libinit2.o(.ARM.Collect$$libinit$$0000002E)
    __rt_lib_init_exceptions_1               0x08000269   Thumb Code     0  libinit2.o(.ARM.Collect$$libinit$$0000002C)
    __rt_lib_init_fp_trap_1                  0x08000269   Thumb Code     0  libinit2.o(.ARM.Collect$$libinit$$0000001B)
    __rt_lib_init_getenv_1                   0x08000269   Thumb Code     0  libinit2.o(.ARM.Collect$$libinit$$0000001F)
    __rt_lib_init_lc_numeric_1               0x08000269   Thumb Code     0  libinit2.o(.ARM.Collect$$libinit$$00000013)
    __rt_lib_init_lc_time_1                  0x08000269   Thumb Code     0  libinit2.o(.ARM.Collect$$libinit$$00000015)
    __rt_lib_init_return                     0x08000269   Thumb Code     0  libinit2.o(.ARM.Collect$$libinit$$0000002F)
    __rt_lib_init_signal_1                   0x08000269   Thumb Code     0  libinit2.o(.ARM.Collect$$libinit$$00000019)
    __rt_lib_init_stdio_1                    0x08000269   Thumb Code     0  libinit2.o(.ARM.Collect$$libinit$$00000021)
    __rt_lib_shutdown                        0x0800026b   Thumb Code     0  libshutdown.o(.ARM.Collect$$libshutdown$$00000000)
    __rt_lib_shutdown_fp_trap_1              0x0800026d   Thumb Code     0  libshutdown2.o(.ARM.Collect$$libshutdown$$00000006)
    __rt_lib_shutdown_heap_1                 0x0800026d   Thumb Code     0  libshutdown2.o(.ARM.Collect$$libshutdown$$0000000E)
    __rt_lib_shutdown_return                 0x0800026d   Thumb Code     0  libshutdown2.o(.ARM.Collect$$libshutdown$$0000000F)
    __rt_lib_shutdown_signal_1               0x0800026d   Thumb Code     0  libshutdown2.o(.ARM.Collect$$libshutdown$$00000009)
    __rt_lib_shutdown_stdio_1                0x0800026d   Thumb Code     0  libshutdown2.o(.ARM.Collect$$libshutdown$$00000003)
    __rt_lib_shutdown_user_alloc_1           0x0800026d   Thumb Code     0  libshutdown2.o(.ARM.Collect$$libshutdown$$0000000B)
    __rt_entry                               0x0800026f   Thumb Code     0  rtentry.o(.ARM.Collect$$rtentry$$00000000)
    __rt_entry_presh_1                       0x0800026f   Thumb Code     0  rtentry2.o(.ARM.Collect$$rtentry$$00000002)
    __rt_entry_sh                            0x0800026f   Thumb Code     0  rtentry4.o(.ARM.Collect$$rtentry$$00000004)
    __rt_entry_li                            0x08000275   Thumb Code     0  rtentry2.o(.ARM.Collect$$rtentry$$0000000A)
    __rt_entry_postsh_1                      0x08000275   Thumb Code     0  rtentry2.o(.ARM.Collect$$rtentry$$00000009)
    __rt_entry_main                          0x08000279   Thumb Code     0  rtentry2.o(.ARM.Collect$$rtentry$$0000000D)
    __rt_entry_postli_1                      0x08000279   Thumb Code     0  rtentry2.o(.ARM.Collect$$rtentry$$0000000C)
    __rt_exit                                0x08000281   Thumb Code     0  rtexit.o(.ARM.Collect$$rtexit$$00000000)
    __rt_exit_ls                             0x08000283   Thumb Code     0  rtexit2.o(.ARM.Collect$$rtexit$$00000003)
    __rt_exit_prels_1                        0x08000283   Thumb Code     0  rtexit2.o(.ARM.Collect$$rtexit$$00000002)
    __rt_exit_exit                           0x08000287   Thumb Code     0  rtexit2.o(.ARM.Collect$$rtexit$$00000004)
    nano_board_init                          0x0800028d   Thumb Code    16  application.o(.text)
    rt_init_thread_entry                     0x0800029d   Thumb Code    10  application.o(.text)
    rt_application_init                      0x080002a7   Thumb Code    38  application.o(.text)
    assert_failed                            0x080002d5   Thumb Code    30  startup.o(.text)
    rtthread_startup                         0x080002f3   Thumb Code    66  startup.o(.text)
    main                                     0x08000335   Thumb Code    14  startup.o(.text)
    nano_board_heartbeat_init                0x0800041b   Thumb Code    44  heartbeat.o(.text)
    uart_input                               0x08000465   Thumb Code    26  bluetooth_4_0.o(.text)
    uart_sync_show                           0x0800047f   Thumb Code    56  bluetooth_4_0.o(.text)
    nano_board_ble_init                      0x080004ff   Thumb Code    72  bluetooth_4_0.o(.text)
    mpu9250_module_read                      0x08000589   Thumb Code   148  mpu9250_app.o(.text)
    Data_Scope_work                          0x0800061d   Thumb Code   198  mpu9250_app.o(.text)
    Kalman_Processing                        0x080006e3   Thumb Code   128  mpu9250_app.o(.text)
    get_true                                 0x08000763   Thumb Code   380  mpu9250_app.o(.text)
    nano_board_mpu9250_app_init              0x08000b0d   Thumb Code    44  mpu9250_app.o(.text)
    NVIC_Configuration                       0x08000bf1   Thumb Code    22  board.o(.text)
    SysTick_Configuration                    0x08000c07   Thumb Code    98  board.o(.text)
    SysTick_Handler                          0x08000c69   Thumb Code    16  board.o(.text)
    rt_hw_board_init                         0x08000c79   Thumb Code    22  board.o(.text)
    rt_hw_serial_register                    0x08000f6b   Thumb Code   126  serial.o(.text)
    rt_hw_serial_isr                         0x08000fe9   Thumb Code   468  serial.o(.text)
    rt_hw_serial_dma_tx_isr                  0x080011bd   Thumb Code   164  serial.o(.text)
    NMI_Handler                              0x080012a5   Thumb Code     2  stm32f4xx_it.o(.text)
    MemManage_Handler                        0x080012a7   Thumb Code     4  stm32f4xx_it.o(.text)
    BusFault_Handler                         0x080012ab   Thumb Code     4  stm32f4xx_it.o(.text)
    UsageFault_Handler                       0x080012af   Thumb Code     4  stm32f4xx_it.o(.text)
    SVC_Handler                              0x080012b3   Thumb Code     2  stm32f4xx_it.o(.text)
    DebugMon_Handler                         0x080012b5   Thumb Code     2  stm32f4xx_it.o(.text)
    USART1_IRQHandler                        0x080012b7   Thumb Code    18  stm32f4xx_it.o(.text)
    USART2_IRQHandler                        0x080012c9   Thumb Code     2  stm32f4xx_it.o(.text)
    USART3_IRQHandler                        0x080012cb   Thumb Code    18  stm32f4xx_it.o(.text)
    rt_hw_usart_init                         0x080013bb   Thumb Code   144  usart.o(.text)
    MPU9250_Config                           0x0800147d   Thumb Code   206  mpu9250.o(.text)
    SPI_WriteByte                            0x0800154b   Thumb Code    26  mpu9250.o(.text)
    SPI_ReadByte                             0x08001565   Thumb Code    34  mpu9250.o(.text)
    MPU9250_Check_MPU6500                    0x08001617   Thumb Code    42  mpu9250.o(.text)
    MPU9250_Check_AK8963                     0x08001641   Thumb Code    78  mpu9250.o(.text)
    MPU9250_Read                             0x0800168f   Thumb Code    16  mpu9250.o(.text)
    MPU9250_Init                             0x0800169f   Thumb Code    54  mpu9250.o(.text)
    SystemInit                               0x080017c7   Thumb Code    88  system_stm32f4xx.o(.text)
    SystemCoreClockUpdate                    0x0800181f   Thumb Code   178  system_stm32f4xx.o(.text)
    NVIC_PriorityGroupConfig                 0x080018fd   Thumb Code    54  misc.o(.text)
    NVIC_Init                                0x08001933   Thumb Code   166  misc.o(.text)
    NVIC_SetVectorTable                      0x080019d9   Thumb Code    60  misc.o(.text)
    NVIC_SystemLPConfig                      0x08001a15   Thumb Code    78  misc.o(.text)
    SysTick_CLKSourceConfig                  0x08001a63   Thumb Code    62  misc.o(.text)
    DMA_DeInit                               0x08001ae9   Thumb Code   462  stm32f4xx_dma.o(.text)
    DMA_Init                                 0x08001cb7   Thumb Code   744  stm32f4xx_dma.o(.text)
    DMA_StructInit                           0x08001f9f   Thumb Code    34  stm32f4xx_dma.o(.text)
    DMA_Cmd                                  0x08001fc1   Thumb Code   186  stm32f4xx_dma.o(.text)
    DMA_PeriphIncOffsetSizeConfig            0x0800207b   Thumb Code   188  stm32f4xx_dma.o(.text)
    DMA_FlowControllerConfig                 0x08002137   Thumb Code   186  stm32f4xx_dma.o(.text)
    DMA_SetCurrDataCounter                   0x080021f1   Thumb Code   148  stm32f4xx_dma.o(.text)
    DMA_GetCurrDataCounter                   0x08002285   Thumb Code   148  stm32f4xx_dma.o(.text)
    DMA_DoubleBufferModeConfig               0x08002319   Thumb Code   204  stm32f4xx_dma.o(.text)
    DMA_DoubleBufferModeCmd                  0x080023e5   Thumb Code   186  stm32f4xx_dma.o(.text)
    DMA_MemoryTargetConfig                   0x0800249f   Thumb Code   178  stm32f4xx_dma.o(.text)
    DMA_GetCurrentMemoryTarget               0x08002551   Thumb Code   162  stm32f4xx_dma.o(.text)
    DMA_GetCmdStatus                         0x080025f3   Thumb Code   162  stm32f4xx_dma.o(.text)
    DMA_GetFIFOStatus                        0x08002695   Thumb Code   154  stm32f4xx_dma.o(.text)
    DMA_GetFlagStatus                        0x0800272f   Thumb Code   470  stm32f4xx_dma.o(.text)
    DMA_ClearFlag                            0x08002905   Thumb Code   220  stm32f4xx_dma.o(.text)
    DMA_ITConfig                             0x080029e1   Thumb Code   244  stm32f4xx_dma.o(.text)
    DMA_GetITStatus                          0x08002ad5   Thumb Code   590  stm32f4xx_dma.o(.text)
    DMA_ClearITPendingBit                    0x08002d23   Thumb Code   220  stm32f4xx_dma.o(.text)
    GPIO_DeInit                              0x08002ea1   Thumb Code   284  stm32f4xx_gpio.o(.text)
    GPIO_Init                                0x08002fbd   Thumb Code   342  stm32f4xx_gpio.o(.text)
    GPIO_StructInit                          0x08003113   Thumb Code    18  stm32f4xx_gpio.o(.text)
    GPIO_PinLockConfig                       0x08003125   Thumb Code   108  stm32f4xx_gpio.o(.text)
    GPIO_ReadInputDataBit                    0x08003191   Thumb Code   182  stm32f4xx_gpio.o(.text)
    GPIO_ReadInputData                       0x08003247   Thumb Code   176  stm32f4xx_gpio.o(.text)
    GPIO_ReadOutputDataBit                   0x080032f7   Thumb Code   186  stm32f4xx_gpio.o(.text)
    GPIO_ReadOutputData                      0x080033b1   Thumb Code    78  stm32f4xx_gpio.o(.text)
    GPIO_SetBits                             0x080033ff   Thumb Code    98  stm32f4xx_gpio.o(.text)
    GPIO_ResetBits                           0x08003461   Thumb Code    98  stm32f4xx_gpio.o(.text)
    GPIO_WriteBit                            0x080034c3   Thumb Code   200  stm32f4xx_gpio.o(.text)
    GPIO_Write                               0x0800358b   Thumb Code    78  stm32f4xx_gpio.o(.text)
    GPIO_ToggleBits                          0x080035d9   Thumb Code    82  stm32f4xx_gpio.o(.text)
    GPIO_PinAFConfig                         0x0800362b   Thumb Code   384  stm32f4xx_gpio.o(.text)
    RCC_DeInit                               0x080037ad   Thumb Code    60  stm32f4xx_rcc.o(.text)
    RCC_HSEConfig                            0x080037e9   Thumb Code    38  stm32f4xx_rcc.o(.text)
    RCC_GetFlagStatus                        0x0800380f   Thumb Code   130  stm32f4xx_rcc.o(.text)
    RCC_WaitForHSEStartUp                    0x08003891   Thumb Code    48  stm32f4xx_rcc.o(.text)
    RCC_AdjustHSICalibrationValue            0x080038c1   Thumb Code    38  stm32f4xx_rcc.o(.text)
    RCC_HSICmd                               0x080038e7   Thumb Code    28  stm32f4xx_rcc.o(.text)
    RCC_LSEConfig                            0x08003903   Thumb Code    72  stm32f4xx_rcc.o(.text)
    RCC_LSICmd                               0x0800394b   Thumb Code    28  stm32f4xx_rcc.o(.text)
    RCC_PLLConfig                            0x08003967   Thumb Code   152  stm32f4xx_rcc.o(.text)
    RCC_PLLCmd                               0x080039ff   Thumb Code    28  stm32f4xx_rcc.o(.text)
    RCC_PLLI2SConfig                         0x08003a1b   Thumb Code    62  stm32f4xx_rcc.o(.text)
    RCC_PLLI2SCmd                            0x08003a59   Thumb Code    28  stm32f4xx_rcc.o(.text)
    RCC_ClockSecuritySystemCmd               0x08003a75   Thumb Code    28  stm32f4xx_rcc.o(.text)
    RCC_MCO1Config                           0x08003a91   Thumb Code   102  stm32f4xx_rcc.o(.text)
    RCC_MCO2Config                           0x08003af7   Thumb Code   102  stm32f4xx_rcc.o(.text)
    RCC_SYSCLKConfig                         0x08003b5d   Thumb Code   124  stm32f4xx_rcc.o(.text)
    RCC_GetSYSCLKSource                      0x08003bd9   Thumb Code    10  stm32f4xx_rcc.o(.text)
    RCC_HCLKConfig                           0x08003be3   Thumb Code    68  stm32f4xx_rcc.o(.text)
    RCC_PCLK1Config                          0x08003c27   Thumb Code    60  stm32f4xx_rcc.o(.text)
    RCC_PCLK2Config                          0x08003c63   Thumb Code    62  stm32f4xx_rcc.o(.text)
    RCC_GetClocksFreq                        0x08003ca1   Thumb Code   206  stm32f4xx_rcc.o(.text)
    RCC_RTCCLKConfig                         0x08003d6f   Thumb Code   262  stm32f4xx_rcc.o(.text)
    RCC_RTCCLKCmd                            0x08003e75   Thumb Code    30  stm32f4xx_rcc.o(.text)
    RCC_BackupResetCmd                       0x08003e93   Thumb Code    32  stm32f4xx_rcc.o(.text)
    RCC_I2SCLKConfig                         0x08003eb3   Thumb Code    30  stm32f4xx_rcc.o(.text)
    RCC_AHB1PeriphClockCmd                   0x08003ed1   Thumb Code    82  stm32f4xx_rcc.o(.text)
    RCC_AHB2PeriphClockCmd                   0x08003f23   Thumb Code    82  stm32f4xx_rcc.o(.text)
    RCC_AHB3PeriphClockCmd                   0x08003f75   Thumb Code   232  stm32f4xx_rcc.o(.text)
    RCC_APB1PeriphClockCmd                   0x0800405d   Thumb Code    82  stm32f4xx_rcc.o(.text)
    RCC_APB2PeriphClockCmd                   0x080040af   Thumb Code    82  stm32f4xx_rcc.o(.text)
    RCC_AHB1PeriphResetCmd                   0x08004101   Thumb Code    82  stm32f4xx_rcc.o(.text)
    RCC_AHB2PeriphResetCmd                   0x08004153   Thumb Code    82  stm32f4xx_rcc.o(.text)
    RCC_AHB3PeriphResetCmd                   0x080041a5   Thumb Code    82  stm32f4xx_rcc.o(.text)
    RCC_APB1PeriphResetCmd                   0x080041f7   Thumb Code    82  stm32f4xx_rcc.o(.text)
    RCC_APB2PeriphResetCmd                   0x08004249   Thumb Code    82  stm32f4xx_rcc.o(.text)
    RCC_AHB1PeriphClockLPModeCmd             0x0800429b   Thumb Code    82  stm32f4xx_rcc.o(.text)
    RCC_AHB2PeriphClockLPModeCmd             0x080042ed   Thumb Code    82  stm32f4xx_rcc.o(.text)
    RCC_AHB3PeriphClockLPModeCmd             0x0800433f   Thumb Code    82  stm32f4xx_rcc.o(.text)
    RCC_APB1PeriphClockLPModeCmd             0x08004391   Thumb Code    82  stm32f4xx_rcc.o(.text)
    RCC_APB2PeriphClockLPModeCmd             0x080043e3   Thumb Code   106  stm32f4xx_rcc.o(.text)
    RCC_ITConfig                             0x0800444d   Thumb Code    78  stm32f4xx_rcc.o(.text)
    RCC_ClearFlag                            0x0800449b   Thumb Code    18  stm32f4xx_rcc.o(.text)
    RCC_GetITStatus                          0x080044ad   Thumb Code    68  stm32f4xx_rcc.o(.text)
    RCC_ClearITPendingBit                    0x080044f1   Thumb Code    34  stm32f4xx_rcc.o(.text)
    SPI_I2S_DeInit                           0x08004519   Thumb Code   104  stm32f4xx_spi.o(.text)
    SPI_Init                                 0x08004581   Thumb Code   348  stm32f4xx_spi.o(.text)
    I2S_Init                                 0x080046dd   Thumb Code   504  stm32f4xx_spi.o(.text)
    SPI_StructInit                           0x080048d5   Thumb Code    24  stm32f4xx_spi.o(.text)
    I2S_StructInit                           0x080048ed   Thumb Code   104  stm32f4xx_spi.o(.text)
    SPI_Cmd                                  0x08004955   Thumb Code    82  stm32f4xx_spi.o(.text)
    I2S_Cmd                                  0x080049a7   Thumb Code    88  stm32f4xx_spi.o(.text)
    SPI_DataSizeConfig                       0x080049ff   Thumb Code    78  stm32f4xx_spi.o(.text)
    SPI_BiDirectionalLineConfig              0x08004a4d   Thumb Code    94  stm32f4xx_spi.o(.text)
    SPI_NSSInternalSoftwareConfig            0x08004aab   Thumb Code    96  stm32f4xx_spi.o(.text)
    SPI_SSOutputCmd                          0x08004b0b   Thumb Code    82  stm32f4xx_spi.o(.text)
    SPI_TIModeCmd                            0x08004b5d   Thumb Code    82  stm32f4xx_spi.o(.text)
    I2S_FullDuplexConfig                     0x08004baf   Thumb Code   258  stm32f4xx_spi.o(.text)
    SPI_I2S_ReceiveData                      0x08004cb1   Thumb Code    52  stm32f4xx_spi.o(.text)
    SPI_I2S_SendData                         0x08004ce5   Thumb Code    54  stm32f4xx_spi.o(.text)
    SPI_CalculateCRC                         0x08004d1b   Thumb Code    98  stm32f4xx_spi.o(.text)
    SPI_TransmitCRC                          0x08004d7d   Thumb Code    46  stm32f4xx_spi.o(.text)
    SPI_GetCRC                               0x08004dab   Thumb Code    74  stm32f4xx_spi.o(.text)
    SPI_GetCRCPolynomial                     0x08004df5   Thumb Code    40  stm32f4xx_spi.o(.text)
    SPI_I2S_DMACmd                           0x08004e1d   Thumb Code   118  stm32f4xx_spi.o(.text)
    SPI_I2S_ITConfig                         0x08004e93   Thumb Code   142  stm32f4xx_spi.o(.text)
    SPI_I2S_GetFlagStatus                    0x08004f21   Thumb Code   120  stm32f4xx_spi.o(.text)
    SPI_I2S_ClearFlag                        0x08004f99   Thumb Code    74  stm32f4xx_spi.o(.text)
    SPI_I2S_GetITStatus                      0x08004fe3   Thumb Code   156  stm32f4xx_spi.o(.text)
    SPI_I2S_ClearITPendingBit                0x0800507f   Thumb Code    86  stm32f4xx_spi.o(.text)
    USART_DeInit                             0x080050e5   Thumb Code   202  stm32f4xx_usart.o(.text)
    USART_Init                               0x080051af   Thumb Code   456  stm32f4xx_usart.o(.text)
    USART_StructInit                         0x08005377   Thumb Code    24  stm32f4xx_usart.o(.text)
    USART_ClockInit                          0x0800538f   Thumb Code   166  stm32f4xx_usart.o(.text)
    USART_ClockStructInit                    0x08005435   Thumb Code    12  stm32f4xx_usart.o(.text)
    USART_Cmd                                0x08005441   Thumb Code    96  stm32f4xx_usart.o(.text)
    USART_SetPrescaler                       0x080054a1   Thumb Code   160  stm32f4xx_usart.o(.text)
    USART_OverSampling8Cmd                   0x08005541   Thumb Code    98  stm32f4xx_usart.o(.text)
    USART_OneBitMethodCmd                    0x080055a3   Thumb Code   100  stm32f4xx_usart.o(.text)
    USART_SendData                           0x08005607   Thumb Code    84  stm32f4xx_usart.o(.text)
    USART_ReceiveData                        0x0800565b   Thumb Code    62  stm32f4xx_usart.o(.text)
    USART_SetAddress                         0x08005699   Thumb Code    92  stm32f4xx_usart.o(.text)
    USART_ReceiverWakeUpCmd                  0x080056f5   Thumb Code   100  stm32f4xx_usart.o(.text)
    USART_WakeUpConfig                       0x08005759   Thumb Code    96  stm32f4xx_usart.o(.text)
    USART_LINBreakDetectLengthConfig         0x080057b9   Thumb Code    94  stm32f4xx_usart.o(.text)
    USART_LINCmd                             0x08005817   Thumb Code   100  stm32f4xx_usart.o(.text)
    USART_SendBreak                          0x0800587b   Thumb Code    64  stm32f4xx_usart.o(.text)
    USART_HalfDuplexCmd                      0x080058bb   Thumb Code   100  stm32f4xx_usart.o(.text)
    USART_SetGuardTime                       0x0800591f   Thumb Code    86  stm32f4xx_usart.o(.text)
    USART_SmartCardCmd                       0x08005975   Thumb Code    88  stm32f4xx_usart.o(.text)
    USART_SmartCardNACKCmd                   0x080059cd   Thumb Code    88  stm32f4xx_usart.o(.text)
    USART_IrDAConfig                         0x08005a25   Thumb Code    94  stm32f4xx_usart.o(.text)
    USART_IrDACmd                            0x08005a83   Thumb Code   100  stm32f4xx_usart.o(.text)
    USART_DMACmd                             0x08005ae7   Thumb Code   124  stm32f4xx_usart.o(.text)
    USART_ITConfig                           0x08005b63   Thumb Code   266  stm32f4xx_usart.o(.text)
    USART_GetFlagStatus                      0x08005c6d   Thumb Code   176  stm32f4xx_usart.o(.text)
    USART_ClearFlag                          0x08005d1d   Thumb Code   158  stm32f4xx_usart.o(.text)
    USART_GetITStatus                        0x08005dbb   Thumb Code   282  stm32f4xx_usart.o(.text)
    USART_ClearITPendingBit                  0x08005ed5   Thumb Code   168  stm32f4xx_usart.o(.text)
    Reset_Handler                            0x08005f95   Thumb Code     8  startup_stm32f4xx.o(.text)
    ADC_IRQHandler                           0x08005faf   Thumb Code     0  startup_stm32f4xx.o(.text)
    CAN1_RX0_IRQHandler                      0x08005faf   Thumb Code     0  startup_stm32f4xx.o(.text)
    CAN1_RX1_IRQHandler                      0x08005faf   Thumb Code     0  startup_stm32f4xx.o(.text)
    CAN1_SCE_IRQHandler                      0x08005faf   Thumb Code     0  startup_stm32f4xx.o(.text)
    CAN1_TX_IRQHandler                       0x08005faf   Thumb Code     0  startup_stm32f4xx.o(.text)
    CAN2_RX0_IRQHandler                      0x08005faf   Thumb Code     0  startup_stm32f4xx.o(.text)
    CAN2_RX1_IRQHandler                      0x08005faf   Thumb Code     0  startup_stm32f4xx.o(.text)
    CAN2_SCE_IRQHandler                      0x08005faf   Thumb Code     0  startup_stm32f4xx.o(.text)
    CAN2_TX_IRQHandler                       0x08005faf   Thumb Code     0  startup_stm32f4xx.o(.text)
    CRYP_IRQHandler                          0x08005faf   Thumb Code     0  startup_stm32f4xx.o(.text)
    DCMI_IRQHandler                          0x08005faf   Thumb Code     0  startup_stm32f4xx.o(.text)
    DMA1_Stream0_IRQHandler                  0x08005faf   Thumb Code     0  startup_stm32f4xx.o(.text)
    DMA1_Stream1_IRQHandler                  0x08005faf   Thumb Code     0  startup_stm32f4xx.o(.text)
    DMA1_Stream2_IRQHandler                  0x08005faf   Thumb Code     0  startup_stm32f4xx.o(.text)
    DMA1_Stream3_IRQHandler                  0x08005faf   Thumb Code     0  startup_stm32f4xx.o(.text)
    DMA1_Stream4_IRQHandler                  0x08005faf   Thumb Code     0  startup_stm32f4xx.o(.text)
    DMA1_Stream5_IRQHandler                  0x08005faf   Thumb Code     0  startup_stm32f4xx.o(.text)
    DMA1_Stream6_IRQHandler                  0x08005faf   Thumb Code     0  startup_stm32f4xx.o(.text)
    DMA1_Stream7_IRQHandler                  0x08005faf   Thumb Code     0  startup_stm32f4xx.o(.text)
    DMA2_Stream0_IRQHandler                  0x08005faf   Thumb Code     0  startup_stm32f4xx.o(.text)
    DMA2_Stream1_IRQHandler                  0x08005faf   Thumb Code     0  startup_stm32f4xx.o(.text)
    DMA2_Stream2_IRQHandler                  0x08005faf   Thumb Code     0  startup_stm32f4xx.o(.text)
    DMA2_Stream3_IRQHandler                  0x08005faf   Thumb Code     0  startup_stm32f4xx.o(.text)
    DMA2_Stream4_IRQHandler                  0x08005faf   Thumb Code     0  startup_stm32f4xx.o(.text)
    DMA2_Stream5_IRQHandler                  0x08005faf   Thumb Code     0  startup_stm32f4xx.o(.text)
    DMA2_Stream6_IRQHandler                  0x08005faf   Thumb Code     0  startup_stm32f4xx.o(.text)
    DMA2_Stream7_IRQHandler                  0x08005faf   Thumb Code     0  startup_stm32f4xx.o(.text)
    ETH_IRQHandler                           0x08005faf   Thumb Code     0  startup_stm32f4xx.o(.text)
    ETH_WKUP_IRQHandler                      0x08005faf   Thumb Code     0  startup_stm32f4xx.o(.text)
    EXTI0_IRQHandler                         0x08005faf   Thumb Code     0  startup_stm32f4xx.o(.text)
    EXTI15_10_IRQHandler                     0x08005faf   Thumb Code     0  startup_stm32f4xx.o(.text)
    EXTI1_IRQHandler                         0x08005faf   Thumb Code     0  startup_stm32f4xx.o(.text)
    EXTI2_IRQHandler                         0x08005faf   Thumb Code     0  startup_stm32f4xx.o(.text)
    EXTI3_IRQHandler                         0x08005faf   Thumb Code     0  startup_stm32f4xx.o(.text)
    EXTI4_IRQHandler                         0x08005faf   Thumb Code     0  startup_stm32f4xx.o(.text)
    EXTI9_5_IRQHandler                       0x08005faf   Thumb Code     0  startup_stm32f4xx.o(.text)
    FLASH_IRQHandler                         0x08005faf   Thumb Code     0  startup_stm32f4xx.o(.text)
    FPU_IRQHandler                           0x08005faf   Thumb Code     0  startup_stm32f4xx.o(.text)
    FSMC_IRQHandler                          0x08005faf   Thumb Code     0  startup_stm32f4xx.o(.text)
    HASH_RNG_IRQHandler                      0x08005faf   Thumb Code     0  startup_stm32f4xx.o(.text)
    I2C1_ER_IRQHandler                       0x08005faf   Thumb Code     0  startup_stm32f4xx.o(.text)
    I2C1_EV_IRQHandler                       0x08005faf   Thumb Code     0  startup_stm32f4xx.o(.text)
    I2C2_ER_IRQHandler                       0x08005faf   Thumb Code     0  startup_stm32f4xx.o(.text)
    I2C2_EV_IRQHandler                       0x08005faf   Thumb Code     0  startup_stm32f4xx.o(.text)
    I2C3_ER_IRQHandler                       0x08005faf   Thumb Code     0  startup_stm32f4xx.o(.text)
    I2C3_EV_IRQHandler                       0x08005faf   Thumb Code     0  startup_stm32f4xx.o(.text)
    OTG_FS_IRQHandler                        0x08005faf   Thumb Code     0  startup_stm32f4xx.o(.text)
    OTG_FS_WKUP_IRQHandler                   0x08005faf   Thumb Code     0  startup_stm32f4xx.o(.text)
    OTG_HS_EP1_IN_IRQHandler                 0x08005faf   Thumb Code     0  startup_stm32f4xx.o(.text)
    OTG_HS_EP1_OUT_IRQHandler                0x08005faf   Thumb Code     0  startup_stm32f4xx.o(.text)
    OTG_HS_IRQHandler                        0x08005faf   Thumb Code     0  startup_stm32f4xx.o(.text)
    OTG_HS_WKUP_IRQHandler                   0x08005faf   Thumb Code     0  startup_stm32f4xx.o(.text)
    PVD_IRQHandler                           0x08005faf   Thumb Code     0  startup_stm32f4xx.o(.text)
    RCC_IRQHandler                           0x08005faf   Thumb Code     0  startup_stm32f4xx.o(.text)
    RTC_Alarm_IRQHandler                     0x08005faf   Thumb Code     0  startup_stm32f4xx.o(.text)
    RTC_WKUP_IRQHandler                      0x08005faf   Thumb Code     0  startup_stm32f4xx.o(.text)
    SDIO_IRQHandler                          0x08005faf   Thumb Code     0  startup_stm32f4xx.o(.text)
    SPI1_IRQHandler                          0x08005faf   Thumb Code     0  startup_stm32f4xx.o(.text)
    SPI2_IRQHandler                          0x08005faf   Thumb Code     0  startup_stm32f4xx.o(.text)
    SPI3_IRQHandler                          0x08005faf   Thumb Code     0  startup_stm32f4xx.o(.text)
    TAMP_STAMP_IRQHandler                    0x08005faf   Thumb Code     0  startup_stm32f4xx.o(.text)
    TIM1_BRK_TIM9_IRQHandler                 0x08005faf   Thumb Code     0  startup_stm32f4xx.o(.text)
    TIM1_CC_IRQHandler                       0x08005faf   Thumb Code     0  startup_stm32f4xx.o(.text)
    TIM1_TRG_COM_TIM11_IRQHandler            0x08005faf   Thumb Code     0  startup_stm32f4xx.o(.text)
    TIM1_UP_TIM10_IRQHandler                 0x08005faf   Thumb Code     0  startup_stm32f4xx.o(.text)
    TIM2_IRQHandler                          0x08005faf   Thumb Code     0  startup_stm32f4xx.o(.text)
    TIM3_IRQHandler                          0x08005faf   Thumb Code     0  startup_stm32f4xx.o(.text)
    TIM4_IRQHandler                          0x08005faf   Thumb Code     0  startup_stm32f4xx.o(.text)
    TIM5_IRQHandler                          0x08005faf   Thumb Code     0  startup_stm32f4xx.o(.text)
    TIM6_DAC_IRQHandler                      0x08005faf   Thumb Code     0  startup_stm32f4xx.o(.text)
    TIM7_IRQHandler                          0x08005faf   Thumb Code     0  startup_stm32f4xx.o(.text)
    TIM8_BRK_TIM12_IRQHandler                0x08005faf   Thumb Code     0  startup_stm32f4xx.o(.text)
    TIM8_CC_IRQHandler                       0x08005faf   Thumb Code     0  startup_stm32f4xx.o(.text)
    TIM8_TRG_COM_TIM14_IRQHandler            0x08005faf   Thumb Code     0  startup_stm32f4xx.o(.text)
    TIM8_UP_TIM13_IRQHandler                 0x08005faf   Thumb Code     0  startup_stm32f4xx.o(.text)
    UART4_IRQHandler                         0x08005faf   Thumb Code     0  startup_stm32f4xx.o(.text)
    UART5_IRQHandler                         0x08005faf   Thumb Code     0  startup_stm32f4xx.o(.text)
    USART6_IRQHandler                        0x08005faf   Thumb Code     0  startup_stm32f4xx.o(.text)
    WWDG_IRQHandler                          0x08005faf   Thumb Code     0  startup_stm32f4xx.o(.text)
    __user_initial_stackheap                 0x08005fb1   Thumb Code     0  startup_stm32f4xx.o(.text)
    rt_system_tick_init                      0x08005fd5   Thumb Code     2  clock.o(.text)
    rt_tick_get                              0x08005fd7   Thumb Code     6  clock.o(.text)
    rt_tick_set                              0x08005fdd   Thumb Code    22  clock.o(.text)
    rt_tick_increase                         0x08005ff3   Thumb Code    42  clock.o(.text)
    rt_tick_from_millisecond                 0x0800601d   Thumb Code    22  clock.o(.text)
    rt_device_find                           0x08006039   Thumb Code    76  device.o(.text)
    rt_device_register                       0x08006085   Thumb Code    50  device.o(.text)
    rt_device_unregister                     0x080060b7   Thumb Code    38  device.o(.text)
    rt_device_init_all                       0x080060dd   Thumb Code    74  device.o(.text)
    rt_device_init                           0x08006127   Thumb Code    76  device.o(.text)
    rt_device_open                           0x08006173   Thumb Code   164  device.o(.text)
    rt_device_close                          0x08006217   Thumb Code    82  device.o(.text)
    rt_device_read                           0x08006269   Thumb Code    86  device.o(.text)
    rt_device_write                          0x080062bf   Thumb Code    86  device.o(.text)
    rt_device_control                        0x08006315   Thumb Code    58  device.o(.text)
    rt_device_set_rx_indicate                0x0800634f   Thumb Code    38  device.o(.text)
    rt_device_set_tx_complete                0x08006375   Thumb Code    38  device.o(.text)
    rt_thread_idle_sethook                   0x08006441   Thumb Code     6  idle.o(.text)
    rt_thread_idle_excute                    0x08006447   Thumb Code   174  idle.o(.text)
    rt_thread_idle_init                      0x08006509   Thumb Code    38  idle.o(.text)
    rt_sem_init                              0x08006655   Thumb Code    66  ipc.o(.text)
    rt_sem_detach                            0x08006697   Thumb Code    46  ipc.o(.text)
    rt_sem_create                            0x080066c5   Thumb Code   100  ipc.o(.text)
    rt_sem_delete                            0x08006729   Thumb Code   102  ipc.o(.text)
    rt_sem_take                              0x0800678f   Thumb Code   302  ipc.o(.text)
    rt_sem_trytake                           0x080068bd   Thumb Code    14  ipc.o(.text)
    rt_sem_release                           0x080068cb   Thumb Code    80  ipc.o(.text)
    rt_sem_control                           0x0800691b   Thumb Code    80  ipc.o(.text)
    rt_mutex_init                            0x0800696b   Thumb Code    74  ipc.o(.text)
    rt_mutex_detach                          0x080069b5   Thumb Code    48  ipc.o(.text)
    rt_mutex_create                          0x080069e5   Thumb Code   326  ipc.o(.text)
    rt_mutex_delete                          0x08006b2b   Thumb Code   112  ipc.o(.text)
    rt_mutex_take                            0x08006b9b   Thumb Code   386  ipc.o(.text)
    rt_mutex_release                         0x08006d1d   Thumb Code   302  ipc.o(.text)
    rt_mutex_control                         0x08006e4b   Thumb Code     8  ipc.o(.text)
    rt_event_init                            0x08006e53   Thumb Code    64  ipc.o(.text)
    rt_event_detach                          0x08006e93   Thumb Code    50  ipc.o(.text)
    rt_event_create                          0x08006ec5   Thumb Code   162  ipc.o(.text)
    rt_event_delete                          0x08006f67   Thumb Code   112  ipc.o(.text)
    rt_event_send                            0x08006fd7   Thumb Code   230  ipc.o(.text)
    rt_event_recv                            0x080070bd   Thumb Code   442  ipc.o(.text)
    rt_event_control                         0x08007277   Thumb Code    84  ipc.o(.text)
    rt_mb_init                               0x080072cb   Thumb Code    94  ipc.o(.text)
    rt_mb_detach                             0x08007329   Thumb Code   112  ipc.o(.text)
    rt_mb_create                             0x08007399   Thumb Code   146  ipc.o(.text)
    rt_mb_delete                             0x0800742b   Thumb Code   126  ipc.o(.text)
    rt_mb_send_wait                          0x080074a9   Thumb Code   434  ipc.o(.text)
    rt_mb_send                               0x0800765b   Thumb Code    18  ipc.o(.text)
    rt_mb_recv                               0x0800766d   Thumb Code   494  ipc.o(.text)
    rt_mb_control                            0x0800785b   Thumb Code    96  ipc.o(.text)
    rt_mq_init                               0x080078bb   Thumb Code   136  ipc.o(.text)
    rt_mq_detach                             0x08007943   Thumb Code    50  ipc.o(.text)
    rt_mq_delete                             0x08007975   Thumb Code   116  ipc.o(.text)
    rt_mq_create                             0x080079e9   Thumb Code   192  ipc.o(.text)
    rt_mq_send                               0x08007aa9   Thumb Code   248  ipc.o(.text)
    rt_mq_urgent                             0x08007ba1   Thumb Code   332  ipc.o(.text)
    rt_mq_recv                               0x08007ced   Thumb Code   520  ipc.o(.text)
    rt_mq_control                            0x08007ef5   Thumb Code   110  ipc.o(.text)
    rt_interrupt_enter                       0x08007fb9   Thumb Code    30  irq.o(.text)
    rt_interrupt_leave                       0x08007fd7   Thumb Code    30  irq.o(.text)
    rt_interrupt_get_nest                    0x08007ff5   Thumb Code     6  irq.o(.text)
    rt_get_errno                             0x08008001   Thumb Code    32  kservice.o(.text)
    rt_set_errno                             0x08008021   Thumb Code    36  kservice.o(.text)
    _rt_errno                                0x08008045   Thumb Code    30  kservice.o(.text)
    rt_memset                                0x08008063   Thumb Code    72  kservice.o(.text)
    rt_memcpy                                0x080080ab   Thumb Code   120  kservice.o(.text)
    rt_memmove                               0x08008123   Thumb Code    66  kservice.o(.text)
    rt_memcmp                                0x08008165   Thumb Code    42  kservice.o(.text)
    rt_strlen                                0x0800818f   Thumb Code    18  kservice.o(.text)
    rt_strstr                                0x080081a1   Thumb Code    58  kservice.o(.text)
    rt_strcasecmp                            0x080081db   Thumb Code    48  kservice.o(.text)
    rt_strncpy                               0x0800820b   Thumb Code    52  kservice.o(.text)
    rt_strncmp                               0x0800823f   Thumb Code    40  kservice.o(.text)
    rt_strcmp                                0x08008267   Thumb Code    28  kservice.o(.text)
    rt_strdup                                0x08008283   Thumb Code    40  kservice.o(.text)
    rt_hw_console_output                     0x080082ab   Thumb Code     2  kservice.o(.text)
    rt_vsnprintf                             0x08008449   Thumb Code   796  kservice.o(.text)
    rt_kprintf                               0x08008765   Thumb Code    96  kservice.o(.text)
    rt_show_version                          0x080087c5   Thumb Code    38  kservice.o(.text)
    rt_snprintf                              0x080087eb   Thumb Code    38  kservice.o(.text)
    rt_vsprintf                              0x08008811   Thumb Code    22  kservice.o(.text)
    rt_sprintf                               0x08008827   Thumb Code    34  kservice.o(.text)
    rt_console_get_device                    0x08008849   Thumb Code     6  kservice.o(.text)
    rt_console_set_device                    0x0800884f   Thumb Code    48  kservice.o(.text)
    rt_malloc_align                          0x0800887f   Thumb Code    66  kservice.o(.text)
    rt_free_align                            0x080088c1   Thumb Code    16  kservice.o(.text)
    __rt_ffs                                 0x080088d1   Thumb Code    72  kservice.o(.text)
    rt_malloc_sethook                        0x080089b5   Thumb Code     6  mem.o(.text)
    rt_free_sethook                          0x080089bb   Thumb Code     6  mem.o(.text)
    rt_system_heap_init                      0x08008a89   Thumb Code   216  mem.o(.text)
    rt_malloc                                0x08008b61   Thumb Code   974  mem.o(.text)
    rt_free                                  0x08008f2f   Thumb Code   322  mem.o(.text)
    rt_realloc                               0x08009071   Thumb Code   330  mem.o(.text)
    rt_calloc                                0x080091bb   Thumb Code    98  mem.o(.text)
    rt_memory_info                           0x0800921d   Thumb Code    26  mem.o(.text)
    list_mem                                 0x08009237   Thumb Code    34  mem.o(.text)
    rt_mp_alloc_sethook                      0x0800932d   Thumb Code     6  mempool.o(.text)
    rt_mp_free_sethook                       0x08009333   Thumb Code     6  mempool.o(.text)
    rt_mp_init                               0x08009339   Thumb Code   144  mempool.o(.text)
    rt_mp_detach                             0x080093c9   Thumb Code    92  mempool.o(.text)
    rt_mp_create                             0x08009425   Thumb Code   190  mempool.o(.text)
    rt_mp_delete                             0x080094e3   Thumb Code   154  mempool.o(.text)
    rt_mp_alloc                              0x0800957d   Thumb Code   240  mempool.o(.text)
    rt_mp_free                               0x0800966d   Thumb Code    98  mempool.o(.text)
    rt_object_attach_sethook                 0x08009779   Thumb Code     6  object.o(.text)
    rt_object_detach_sethook                 0x0800977f   Thumb Code     6  object.o(.text)
    rt_object_trytake_sethook                0x08009785   Thumb Code     6  object.o(.text)
    rt_object_take_sethook                   0x0800978b   Thumb Code     6  object.o(.text)
    rt_object_put_sethook                    0x08009791   Thumb Code     6  object.o(.text)
    rt_system_object_init                    0x08009797   Thumb Code     2  object.o(.text)
    rt_object_get_information                0x08009799   Thumb Code    10  object.o(.text)
    rt_object_init                           0x080097a3   Thumb Code    76  object.o(.text)
    rt_object_detach                         0x080097ef   Thumb Code    68  object.o(.text)
    rt_object_allocate                       0x08009833   Thumb Code   148  object.o(.text)
    rt_object_delete                         0x080098c7   Thumb Code   108  object.o(.text)
    rt_object_is_systemobject                0x08009933   Thumb Code    46  object.o(.text)
    rt_object_find                           0x08009961   Thumb Code   110  object.o(.text)
    rt_scheduler_sethook                     0x08009a89   Thumb Code     6  scheduler.o(.text)
    rt_system_scheduler_init                 0x08009aed   Thumb Code    56  scheduler.o(.text)
    rt_system_scheduler_start                0x08009b25   Thumb Code    36  scheduler.o(.text)
    rt_schedule                              0x08009b49   Thumb Code   134  scheduler.o(.text)
    rt_schedule_insert_thread                0x08009bcf   Thumb Code    94  scheduler.o(.text)
    rt_schedule_remove_thread                0x08009c2d   Thumb Code   106  scheduler.o(.text)
    rt_enter_critical                        0x08009c97   Thumb Code    28  scheduler.o(.text)
    rt_exit_critical                         0x08009cb3   Thumb Code    54  scheduler.o(.text)
    rt_critical_level                        0x08009ce9   Thumb Code     8  scheduler.o(.text)
    rt_thread_timeout                        0x08009e19   Thumb Code    90  thread.o(.text)
    rt_thread_init                           0x08009f21   Thumb Code   126  thread.o(.text)
    rt_thread_self                           0x08009f9f   Thumb Code     6  thread.o(.text)
    rt_thread_resume                         0x08009fa5   Thumb Code    90  thread.o(.text)
    rt_thread_startup                        0x08009fff   Thumb Code   112  thread.o(.text)
    rt_thread_detach                         0x0800a06f   Thumb Code    84  thread.o(.text)
    rt_thread_create                         0x0800a0c3   Thumb Code    98  thread.o(.text)
    rt_thread_delete                         0x0800a125   Thumb Code    76  thread.o(.text)
    rt_thread_yield                          0x0800a171   Thumb Code   314  thread.o(.text)
    rt_thread_suspend                        0x0800a2ab   Thumb Code    84  thread.o(.text)
    rt_thread_sleep                          0x0800a2ff   Thumb Code    90  thread.o(.text)
    rt_thread_delay                          0x0800a359   Thumb Code    12  thread.o(.text)
    rt_thread_control                        0x0800a365   Thumb Code   144  thread.o(.text)
    rt_thread_find                           0x0800a3f5   Thumb Code    76  thread.o(.text)
    rt_timer_timeout_sethook                 0x0800a463   Thumb Code     6  timer.o(.text)
    rt_timer_dump                            0x0800a519   Thumb Code    46  timer.o(.text)
    rt_timer_init                            0x0800a547   Thumb Code    90  timer.o(.text)
    rt_timer_detach                          0x0800a5a1   Thumb Code    56  timer.o(.text)
    rt_timer_create                          0x0800a5d9   Thumb Code    66  timer.o(.text)
    rt_timer_delete                          0x0800a61b   Thumb Code    58  timer.o(.text)
    rt_timer_start                           0x0800a655   Thumb Code   312  timer.o(.text)
    rt_timer_stop                            0x0800a78d   Thumb Code    92  timer.o(.text)
    rt_timer_control                         0x0800a7e9   Thumb Code   232  timer.o(.text)
    rt_timer_check                           0x0800a8d1   Thumb Code   148  timer.o(.text)
    rt_timer_next_timeout_tick               0x0800a965   Thumb Code    10  timer.o(.text)
    rt_system_timer_init                     0x0800a96f   Thumb Code    24  timer.o(.text)
    rt_system_timer_thread_init              0x0800a987   Thumb Code     2  timer.o(.text)
    rt_hw_stack_init                         0x0800a9a9   Thumb Code    64  cpuport.o(.text)
    rt_hw_exception_install                  0x0800a9e9   Thumb Code     6  cpuport.o(.text)
    rt_hw_hard_fault_exception               0x0800a9ef   Thumb Code   112  cpuport.o(.text)
    rt_hw_cpu_shutdown                       0x0800aa5f   Thumb Code    30  cpuport.o(.text)
    rt_hw_interrupt_disable                  0x0800ab59   Thumb Code     8  context_rvds.o(.text)
    rt_hw_interrupt_enable                   0x0800ab61   Thumb Code     6  context_rvds.o(.text)
    rt_hw_context_switch                     0x0800ab67   Thumb Code    32  context_rvds.o(.text)
    rt_hw_context_switch_interrupt           0x0800ab67   Thumb Code     0  context_rvds.o(.text)
    PendSV_Handler                           0x0800ab87   Thumb Code   108  context_rvds.o(.text)
    rt_hw_context_switch_to                  0x0800abf3   Thumb Code    70  context_rvds.o(.text)
    rt_hw_interrupt_thread_switch            0x0800ac39   Thumb Code     4  context_rvds.o(.text)
    HardFault_Handler                        0x0800ac3d   Thumb Code    20  context_rvds.o(.text)
    hello                                    0x0800ac7d   Thumb Code    12  cmd.o(.text)
    version                                  0x0800ac89   Thumb Code    10  cmd.o(.text)
    list_thread                              0x0800ad41   Thumb Code    10  cmd.o(.text)
    list_sem                                 0x0800adf3   Thumb Code    12  cmd.o(.text)
    list_event                               0x0800ae6f   Thumb Code    12  cmd.o(.text)
    list_mutex                               0x0800aecd   Thumb Code    12  cmd.o(.text)
    list_mailbox                             0x0800af61   Thumb Code    12  cmd.o(.text)
    list_msgqueue                            0x0800afed   Thumb Code    12  cmd.o(.text)
    list_mempool                             0x0800b39d   Thumb Code    10  cmd.o(.text)
    list_timer                               0x0800b3fd   Thumb Code    12  cmd.o(.text)
    list_device                              0x0800b457   Thumb Code    12  cmd.o(.text)
    list                                     0x0800b463   Thumb Code   126  cmd.o(.text)
    list_prefix                              0x0800b523   Thumb Code   434  cmd.o(.text)
    finsh_compiler_run                       0x0800cfff   Thumb Code    88  finsh_compiler.o(.text)
    finsh_error_init                         0x0800d069   Thumb Code     8  finsh_error.o(.text)
    finsh_error_set                          0x0800d071   Thumb Code    10  finsh_error.o(.text)
    finsh_errno                              0x0800d07b   Thumb Code     6  finsh_error.o(.text)
    finsh_error_string                       0x0800d081   Thumb Code    10  finsh_error.o(.text)
    finsh_heap_init                          0x0800d095   Thumb Code    36  finsh_heap.o(.text)
    finsh_heap_free                          0x0800d1b9   Thumb Code    34  finsh_heap.o(.text)
    finsh_heap_allocate                      0x0800d229   Thumb Code   106  finsh_heap.o(.text)
    finsh_init                               0x0800d2a5   Thumb Code    30  finsh_init.o(.text)
    finsh_stack_bottom                       0x0800d2c3   Thumb Code     6  finsh_init.o(.text)
    finsh_flush                              0x0800d2c9   Thumb Code    22  finsh_init.o(.text)
    finsh_reset                              0x0800d2df   Thumb Code    24  finsh_init.o(.text)
    finsh_node_init                          0x0800d2fd   Thumb Code    16  finsh_node.o(.text)
    finsh_node_allocate                      0x0800d30d   Thumb Code    56  finsh_node.o(.text)
    finsh_node_new_id                        0x0800d345   Thumb Code   118  finsh_node.o(.text)
    finsh_node_new_char                      0x0800d3bb   Thumb Code    30  finsh_node.o(.text)
    finsh_node_new_int                       0x0800d3d9   Thumb Code    30  finsh_node.o(.text)
    finsh_node_new_long                      0x0800d3f7   Thumb Code    30  finsh_node.o(.text)
    finsh_node_new_string                    0x0800d415   Thumb Code    74  finsh_node.o(.text)
    finsh_node_new_ptr                       0x0800d45f   Thumb Code    30  finsh_node.o(.text)
    OP_no_op                                 0x0800d481   Thumb Code     2  finsh_ops.o(.text)
    OP_add_byte                              0x0800d483   Thumb Code    42  finsh_ops.o(.text)
    OP_add_word                              0x0800d4ad   Thumb Code    44  finsh_ops.o(.text)
    OP_add_dword                             0x0800d4d9   Thumb Code    42  finsh_ops.o(.text)
    OP_sub_byte                              0x0800d503   Thumb Code    42  finsh_ops.o(.text)
    OP_sub_word                              0x0800d52d   Thumb Code    44  finsh_ops.o(.text)
    OP_sub_dword                             0x0800d559   Thumb Code    42  finsh_ops.o(.text)
    OP_div_byte                              0x0800d583   Thumb Code    44  finsh_ops.o(.text)
    OP_div_word                              0x0800d5af   Thumb Code    46  finsh_ops.o(.text)
    OP_div_dword                             0x0800d5dd   Thumb Code    44  finsh_ops.o(.text)
    OP_mod_byte                              0x0800d609   Thumb Code    48  finsh_ops.o(.text)
    OP_mod_word                              0x0800d639   Thumb Code    48  finsh_ops.o(.text)
    OP_mod_dword                             0x0800d669   Thumb Code    48  finsh_ops.o(.text)
    OP_mul_byte                              0x0800d699   Thumb Code    44  finsh_ops.o(.text)
    OP_mul_word                              0x0800d6c5   Thumb Code    46  finsh_ops.o(.text)
    OP_mul_dword                             0x0800d6f3   Thumb Code    42  finsh_ops.o(.text)
    OP_and_byte                              0x0800d71d   Thumb Code    42  finsh_ops.o(.text)
    OP_and_word                              0x0800d747   Thumb Code    42  finsh_ops.o(.text)
    OP_and_dword                             0x0800d771   Thumb Code    42  finsh_ops.o(.text)
    OP_or_byte                               0x0800d79b   Thumb Code    42  finsh_ops.o(.text)
    OP_or_word                               0x0800d7c5   Thumb Code    42  finsh_ops.o(.text)
    OP_or_dword                              0x0800d7ef   Thumb Code    42  finsh_ops.o(.text)
    OP_xor_byte                              0x0800d819   Thumb Code    42  finsh_ops.o(.text)
    OP_xor_word                              0x0800d843   Thumb Code    46  finsh_ops.o(.text)
    OP_xor_dword                             0x0800d871   Thumb Code    42  finsh_ops.o(.text)
    OP_bw_byte                               0x0800d89b   Thumb Code    20  finsh_ops.o(.text)
    OP_bw_word                               0x0800d8af   Thumb Code    20  finsh_ops.o(.text)
    OP_bw_dword                              0x0800d8c3   Thumb Code    20  finsh_ops.o(.text)
    OP_shl_byte                              0x0800d8d7   Thumb Code    42  finsh_ops.o(.text)
    OP_shl_word                              0x0800d901   Thumb Code    44  finsh_ops.o(.text)
    OP_shl_dword                             0x0800d92d   Thumb Code    42  finsh_ops.o(.text)
    OP_shr_byte                              0x0800d957   Thumb Code    42  finsh_ops.o(.text)
    OP_shr_word                              0x0800d981   Thumb Code    42  finsh_ops.o(.text)
    OP_shr_dword                             0x0800d9ab   Thumb Code    42  finsh_ops.o(.text)
    OP_ld_byte                               0x0800d9d5   Thumb Code    34  finsh_ops.o(.text)
    OP_ld_word                               0x0800d9f7   Thumb Code    46  finsh_ops.o(.text)
    OP_ld_dword                              0x0800da25   Thumb Code    64  finsh_ops.o(.text)
    OP_ld_value_byte                         0x0800da65   Thumb Code    66  finsh_ops.o(.text)
    OP_ld_value_byte_stack                   0x0800daa7   Thumb Code    20  finsh_ops.o(.text)
    OP_ld_value_word                         0x0800dabb   Thumb Code    66  finsh_ops.o(.text)
    OP_ld_value_word_stack                   0x0800dafd   Thumb Code    20  finsh_ops.o(.text)
    OP_ld_value_dword                        0x0800db11   Thumb Code    66  finsh_ops.o(.text)
    OP_ld_value_dword_stack                  0x0800db53   Thumb Code    20  finsh_ops.o(.text)
    OP_st_byte                               0x0800db67   Thumb Code    30  finsh_ops.o(.text)
    OP_st_word                               0x0800db85   Thumb Code    30  finsh_ops.o(.text)
    OP_st_dword                              0x0800dba3   Thumb Code    30  finsh_ops.o(.text)
    OP_pop                                   0x0800dbc1   Thumb Code    12  finsh_ops.o(.text)
    OP_call                                  0x0800dbcd   Thumb Code   906  finsh_ops.o(.text)
    finsh_parser_run                         0x0800e7ed   Thumb Code   220  finsh_parser.o(.text)
    finsh_parser_init                        0x0800e8c9   Thumb Code    16  finsh_parser.o(.text)
    finsh_token_init                         0x0800e8d9   Thumb Code    20  finsh_token.o(.text)
    token_get_string                         0x0800ecad   Thumb Code   120  finsh_token.o(.text)
    finsh_token_token                        0x0800eee5   Thumb Code    24  finsh_token.o(.text)
    finsh_token_get_token                    0x0800eefd   Thumb Code    20  finsh_token.o(.text)
    finsh_var_init                           0x0800ef15   Thumb Code    14  finsh_var.o(.text)
    finsh_var_insert                         0x0800ef23   Thumb Code   112  finsh_var.o(.text)
    finsh_var_delete                         0x0800ef93   Thumb Code    68  finsh_var.o(.text)
    finsh_var_lookup                         0x0800efd7   Thumb Code    58  finsh_var.o(.text)
    finsh_sysvar_append                      0x0800f011   Thumb Code    62  finsh_var.o(.text)
    finsh_sysvar_lookup                      0x0800f04f   Thumb Code    78  finsh_var.o(.text)
    finsh_vm_run                             0x0800f0ad   Thumb Code    62  finsh_vm.o(.text)
    finsh_syscall_append                     0x0800f0eb   Thumb Code    54  finsh_vm.o(.text)
    finsh_syscall_lookup                     0x0800f121   Thumb Code    78  finsh_vm.o(.text)
    finsh_set_device                         0x0800f1bf   Thumb Code   128  shell.o(.text)
    finsh_get_device                         0x0800f23f   Thumb Code    40  shell.o(.text)
    finsh_set_echo                           0x0800f267   Thumb Code    42  shell.o(.text)
    finsh_get_echo                           0x0800f291   Thumb Code    44  shell.o(.text)
    finsh_run_line                           0x0800f2d9   Thumb Code   148  shell.o(.text)
    finsh_thread_entry                       0x0800f429   Thumb Code  1616  shell.o(.text)
    finsh_system_function_init               0x0800fa79   Thumb Code    10  shell.o(.text)
    finsh_system_var_init                    0x0800fa83   Thumb Code    10  shell.o(.text)
    finsh_system_init                        0x0800fa8d   Thumb Code   122  shell.o(.text)
    Float2Byte                               0x0800fb5d   Thumb Code    28  datascope_dp.o(.text)
    DataScope_Get_Channel_Data               0x0800fb79   Thumb Code   162  datascope_dp.o(.text)
    DataScope_Data_Generate                  0x0800fc1b   Thumb Code   150  datascope_dp.o(.text)
    AHRS_Init                                0x0800fcb5   Thumb Code    58  algorithm_ahrs.o(.text)
    AHRS_Update                              0x0800fcef   Thumb Code   704  algorithm_ahrs.o(.text)
    Quaternion_ToNumQ                        0x0800fff9   Thumb Code   216  algorithm_quaternion.o(.text)
    Quaternion_ToAngE                        0x080100d1   Thumb Code   276  algorithm_quaternion.o(.text)
    Quaternion_Normalize                     0x080101e5   Thumb Code   138  algorithm_quaternion.o(.text)
    Quaternion_Multiply                      0x0801026f   Thumb Code   242  algorithm_quaternion.o(.text)
    Quaternion_RungeKutta                    0x08010361   Thumb Code   154  algorithm_quaternion.o(.text)
    kalman                                   0x08010401   Thumb Code   334  kalman_filter.o(.text)
    __2sprintf                               0x08010565   Thumb Code    34  noretval__2sprintf.o(.text)
    _printf_pre_padding                      0x0801058d   Thumb Code    46  _printf_pad.o(.text)
    _printf_post_padding                     0x080105bb   Thumb Code    36  _printf_pad.o(.text)
    __printf                                 0x080105df   Thumb Code   270  __printf_wp.o(.text)
    atoi                                     0x080106ed   Thumb Code    26  atoi.o(.text)
    strlen                                   0x08010707   Thumb Code    62  strlen.o(.text)
    strncmp                                  0x08010745   Thumb Code   150  strncmp.o(.text)
    __aeabi_memcpy                           0x080107db   Thumb Code     0  rt_memcpy_v6.o(.text)
    __rt_memcpy                              0x080107db   Thumb Code   138  rt_memcpy_v6.o(.text)
    _memcpy_lastbytes                        0x08010841   Thumb Code     0  rt_memcpy_v6.o(.text)
    __aeabi_memcpy4                          0x08010865   Thumb Code     0  rt_memcpy_w.o(.text)
    __aeabi_memcpy8                          0x08010865   Thumb Code     0  rt_memcpy_w.o(.text)
    __rt_memcpy_w                            0x08010865   Thumb Code   100  rt_memcpy_w.o(.text)
    _memcpy_lastbytes_aligned                0x080108ad   Thumb Code     0  rt_memcpy_w.o(.text)
    __aeabi_memclr                           0x080108c9   Thumb Code     0  rt_memclr.o(.text)
    __rt_memclr                              0x080108c9   Thumb Code    68  rt_memclr.o(.text)
    _memset                                  0x080108cd   Thumb Code     0  rt_memclr.o(.text)
    __aeabi_memclr4                          0x0801090d   Thumb Code     0  rt_memclr_w.o(.text)
    __aeabi_memclr8                          0x0801090d   Thumb Code     0  rt_memclr_w.o(.text)
    __rt_memclr_w                            0x0801090d   Thumb Code    78  rt_memclr_w.o(.text)
    _memset_w                                0x08010911   Thumb Code     0  rt_memclr_w.o(.text)
    strncpy                                  0x0801095b   Thumb Code    86  strncpy.o(.text)
    strcmp                                   0x080109b1   Thumb Code   128  strcmpv7m.o(.text)
    __use_two_region_memory                  0x08010a31   Thumb Code     2  heapauxi.o(.text)
    __rt_heap_escrow$2region                 0x08010a33   Thumb Code     2  heapauxi.o(.text)
    __rt_heap_expand$2region                 0x08010a35   Thumb Code     2  heapauxi.o(.text)
    __aeabi_errno_addr                       0x08010a39   Thumb Code     8  rt_errno_addr_intlibspace.o(.text)
    __errno$intlibspace                      0x08010a39   Thumb Code     0  rt_errno_addr_intlibspace.o(.text)
    __rt_errno_addr$intlibspace              0x08010a39   Thumb Code     0  rt_errno_addr_intlibspace.o(.text)
    __read_errno                             0x08010a41   Thumb Code    10  _rserrno.o(.text)
    __set_errno                              0x08010a4b   Thumb Code    12  _rserrno.o(.text)
    __lib_sel_fp_printf                      0x08010a57   Thumb Code     2  _printf_fp_dec.o(.text)
    _printf_fp_dec_real                      0x08010c05   Thumb Code   626  _printf_fp_dec.o(.text)
    _printf_char_common                      0x08010e83   Thumb Code    32  _printf_char_common.o(.text)
    _sputc                                   0x08010ea9   Thumb Code    10  _sputc.o(.text)
    strtol                                   0x08010eb3   Thumb Code   112  strtol.o(.text)
    __user_libspace                          0x08010f25   Thumb Code     8  libspace.o(.text)
    __user_perproc_libspace                  0x08010f25   Thumb Code     0  libspace.o(.text)
    __user_perthread_libspace                0x08010f25   Thumb Code     0  libspace.o(.text)
    __rt_ctype_table                         0x08010f2d   Thumb Code    16  rt_ctype_table.o(.text)
    __rt_locale                              0x08010f3d   Thumb Code     8  rt_locale_intlibspace.o(.text)
    _ll_udiv10                               0x08010f45   Thumb Code   138  lludiv10.o(.text)
    _printf_fp_infnan                        0x08010fd1   Thumb Code   112  _printf_fp_infnan.o(.text)
    _strtoul                                 0x08011051   Thumb Code   158  _strtoul.o(.text)
    _btod_etento                             0x080110f1   Thumb Code   222  bigflt0.o(.text)
    __user_setup_stackheap                   0x080111d5   Thumb Code    74  sys_stackheap_outer.o(.text)
    _chval                                   0x0801121f   Thumb Code    28  _chval.o(.text)
    exit                                     0x0801123b   Thumb Code    12  exit.o(.text)
    _sys_exit                                0x08011249   Thumb Code     8  sys_exit.o(.text)
    __I$use$semihosting                      0x08011255   Thumb Code     0  use_no_semi.o(.text)
    __use_no_semihosting_swi                 0x08011255   Thumb Code     2  use_no_semi.o(.text)
    __semihosting_library_function           0x08011257   Thumb Code     0  indicate_semi.o(.text)
    _btod_d2e                                0x08011257   Thumb Code    62  btod.o(CL$$btod_d2e)
    _d2e_denorm_low                          0x08011295   Thumb Code    70  btod.o(CL$$btod_d2e_denorm_low)
    _d2e_norm_op1                            0x080112db   Thumb Code    96  btod.o(CL$$btod_d2e_norm_op1)
    __btod_div_common                        0x0801133b   Thumb Code   696  btod.o(CL$$btod_div_common)
    _e2e                                     0x08011673   Thumb Code   198  btod.o(CL$$btod_e2e)
    _btod_ediv                               0x08011739   Thumb Code    40  btod.o(CL$$btod_ediv)
    _btod_emul                               0x08011761   Thumb Code    40  btod.o(CL$$btod_emul)
    __btod_mult_common                       0x08011789   Thumb Code   580  btod.o(CL$$btod_mult_common)
    __ARM_fpclassify                         0x080119cd   Thumb Code    48  fpclassify.o(i.__ARM_fpclassify)
    __ARM_fpclassifyf                        0x080119fd   Thumb Code    38  fpclassifyf.o(i.__ARM_fpclassifyf)
    __hardfp_asinf                           0x08011a25   Thumb Code   250  asinf.o(i.__hardfp_asinf)
    __hardfp_atan2f                          0x08011b49   Thumb Code   486  atan2f.o(i.__hardfp_atan2f)
    __hardfp_cosf                            0x08011d91   Thumb Code   286  cosf.o(i.__hardfp_cosf)
    __hardfp_sinf                            0x08011ef1   Thumb Code   314  sinf.o(i.__hardfp_sinf)
    __hardfp_sqrtf                           0x08012069   Thumb Code    58  sqrtf.o(i.__hardfp_sqrtf)
    __mathlib_flt_underflow                  0x080120a5   Thumb Code    10  funder.o(i.__mathlib_flt_underflow)
    __mathlib_rredf2                         0x080120b5   Thumb Code   294  rredf.o(i.__mathlib_rredf2)
    _is_digit                                0x080121f5   Thumb Code    14  __printf_wp.o(i._is_digit)
    sqrtf                                    0x08012203   Thumb Code    62  sqrtf.o(i.sqrtf)
    _get_lc_numeric                          0x08012241   Thumb Code    44  lc_numeric_c.o(locale$$code)
    _get_lc_ctype                            0x0801226d   Thumb Code    44  lc_ctype_c.o(locale$$code)
    __aeabi_d2f                              0x08012299   Thumb Code     0  d2f.o(x$fpl$d2f)
    _d2f                                     0x08012299   Thumb Code    98  d2f.o(x$fpl$d2f)
    __aeabi_dadd                             0x080122fd   Thumb Code     0  daddsub_clz.o(x$fpl$dadd)
    _dadd                                    0x080122fd   Thumb Code   332  daddsub_clz.o(x$fpl$dadd)
    __aeabi_ddiv                             0x0801244d   Thumb Code     0  ddiv.o(x$fpl$ddiv)
    _ddiv                                    0x0801244d   Thumb Code   552  ddiv.o(x$fpl$ddiv)
    __aeabi_d2iz                             0x080126fd   Thumb Code     0  dfix.o(x$fpl$dfix)
    _dfix                                    0x080126fd   Thumb Code    94  dfix.o(x$fpl$dfix)
    __aeabi_i2d                              0x0801275b   Thumb Code     0  dflt_clz.o(x$fpl$dflt)
    _dflt                                    0x0801275b   Thumb Code    46  dflt_clz.o(x$fpl$dflt)
    __aeabi_dmul                             0x08012789   Thumb Code     0  dmul.o(x$fpl$dmul)
    _dmul                                    0x08012789   Thumb Code   332  dmul.o(x$fpl$dmul)
    __fpl_dnaninf                            0x080128dd   Thumb Code   156  dnaninf.o(x$fpl$dnaninf)
    __fpl_dretinf                            0x08012979   Thumb Code    12  dretinf.o(x$fpl$dretinf)
    __aeabi_dsub                             0x08012985   Thumb Code     0  daddsub_clz.o(x$fpl$dsub)
    _dsub                                    0x08012985   Thumb Code   464  daddsub_clz.o(x$fpl$dsub)
    __aeabi_f2d                              0x08012b59   Thumb Code     0  f2d.o(x$fpl$f2d)
    _f2d                                     0x08012b59   Thumb Code    86  f2d.o(x$fpl$f2d)
    __fpl_fnaninf                            0x08012baf   Thumb Code   140  fnaninf.o(x$fpl$fnaninf)
    _fp_init                                 0x08012c3b   Thumb Code    10  fpinit.o(x$fpl$fpinit)
    __fplib_config_fpu_vfp                   0x08012c43   Thumb Code     0  fpinit.o(x$fpl$fpinit)
    __fplib_config_pureend_doubles           0x08012c43   Thumb Code     0  fpinit.o(x$fpl$fpinit)
    __fpl_fretinf                            0x08012c45   Thumb Code    10  fretinf.o(x$fpl$fretinf)
    _printf_fp_dec                           0x08012c4f   Thumb Code     4  printf1.o(x$fpl$printf1)
    __I$use$fp                               0x08012c53   Thumb Code     0  usenofp.o(x$fpl$usenofp)
    __lowest_bit_bitmap                      0x08012f89   Data         256  kservice.o(.constdata)
    __fsym_list_mem_name                     0x080130ac   Data           9  mem.o(.constdata)
    __fsym_list_mem_desc                     0x080130b5   Data          30  mem.o(.constdata)
    __fsym_hello_name                        0x08013410   Data           6  cmd.o(.constdata)
    __fsym_hello_desc                        0x08013416   Data          16  cmd.o(.constdata)
    __fsym_version_name                      0x08013426   Data           8  cmd.o(.constdata)
    __fsym_version_desc                      0x0801342e   Data          35  cmd.o(.constdata)
    __fsym_list_thread_name                  0x08013451   Data          12  cmd.o(.constdata)
    __fsym_list_thread_desc                  0x0801345d   Data          12  cmd.o(.constdata)
    __fsym_list_sem_name                     0x08013469   Data           9  cmd.o(.constdata)
    __fsym_list_sem_desc                     0x08013472   Data          25  cmd.o(.constdata)
    __fsym_list_event_name                   0x0801348b   Data          11  cmd.o(.constdata)
    __fsym_list_event_desc                   0x08013496   Data          21  cmd.o(.constdata)
    __fsym_list_mutex_name                   0x080134ab   Data          11  cmd.o(.constdata)
    __fsym_list_mutex_desc                   0x080134b6   Data          21  cmd.o(.constdata)
    __fsym_list_mailbox_name                 0x080134cb   Data          13  cmd.o(.constdata)
    __fsym_list_mailbox_desc                 0x080134d8   Data          24  cmd.o(.constdata)
    __fsym_list_msgqueue_name                0x080134f0   Data          14  cmd.o(.constdata)
    __fsym_list_msgqueue_desc                0x080134fe   Data          29  cmd.o(.constdata)
    __fsym_list_mempool_name                 0x0801351b   Data          13  cmd.o(.constdata)
    __fsym_list_mempool_desc                 0x08013528   Data          27  cmd.o(.constdata)
    __fsym_list_timer_name                   0x08013543   Data          11  cmd.o(.constdata)
    __fsym_list_timer_desc                   0x0801354e   Data          21  cmd.o(.constdata)
    __fsym_list_device_name                  0x08013563   Data          12  cmd.o(.constdata)
    __fsym_list_device_desc                  0x0801356f   Data          22  cmd.o(.constdata)
    __fsym_list_name                         0x08013585   Data           5  cmd.o(.constdata)
    __fsym_list_desc                         0x0801358a   Data          26  cmd.o(.constdata)
    __vsym_dummy_name                        0x080135a4   Data           6  cmd.o(.constdata)
    __vsym_dummy_desc                        0x080135aa   Data          25  cmd.o(.constdata)
    op_table                                 0x080136a4   Data         196  finsh_ops.o(.constdata)
    FSymTab$$Base                            0x08013aac   Number         0  mem.o(FSymTab)
    __fsym_list_mem                          0x08013aac   Data          12  mem.o(FSymTab)
    __fsym_hello                             0x08013ab8   Data          12  cmd.o(FSymTab)
    __fsym_version                           0x08013ac4   Data          12  cmd.o(FSymTab)
    __fsym_list_thread                       0x08013ad0   Data          12  cmd.o(FSymTab)
    __fsym_list_sem                          0x08013adc   Data          12  cmd.o(FSymTab)
    __fsym_list_event                        0x08013ae8   Data          12  cmd.o(FSymTab)
    __fsym_list_mutex                        0x08013af4   Data          12  cmd.o(FSymTab)
    __fsym_list_mailbox                      0x08013b00   Data          12  cmd.o(FSymTab)
    __fsym_list_msgqueue                     0x08013b0c   Data          12  cmd.o(FSymTab)
    __fsym_list_mempool                      0x08013b18   Data          12  cmd.o(FSymTab)
    __fsym_list_timer                        0x08013b24   Data          12  cmd.o(FSymTab)
    __fsym_list_device                       0x08013b30   Data          12  cmd.o(FSymTab)
    __fsym_list                              0x08013b3c   Data          12  cmd.o(FSymTab)
    FSymTab$$Limit                           0x08013b48   Number         0  cmd.o(FSymTab)
    Region$$Table$$Base                      0x08013b48   Number         0  anon$$obj.o(Region$$Table)
    Region$$Table$$Limit                     0x08013b68   Number         0  anon$$obj.o(Region$$Table)
    VSymTab$$Base                            0x08013b68   Number         0  cmd.o(VSymTab)
    __vsym_dummy                             0x08013b68   Data          16  cmd.o(VSymTab)
    VSymTab$$Limit                           0x08013b78   Number         0  cmd.o(VSymTab)
    __ctype                                  0x08013ba1   Data           0  lc_ctype_c.o(locale$$data)
    ble_tx_buff                              0x20000000   Data         120  bluetooth_4_0.o(.data)
    read_cmd                                 0x2000007c   Data           8  bluetooth_4_0.o(.data)
    cmd_func                                 0x20000084   Data           4  bluetooth_4_0.o(.data)
    Temp                                     0x20000088   Data           2  mpu9250_app.o(.data)
    Temp_True                                0x2000008c   Data           4  mpu9250_app.o(.data)
    uart1                                    0x20000090   Data          12  usart.o(.data)
    uart3                                    0x2000009c   Data          12  usart.o(.data)
    uart3_debug                              0x200000a8   Data           4  usart.o(.data)
    SystemCoreClock                          0x200000ac   Data           4  system_stm32f4xx.o(.data)
    AHBPrescTable                            0x200000b0   Data          16  system_stm32f4xx.o(.data)
    rt_interrupt_nest                        0x200000d8   Data           1  irq.o(.data)
    rt_object_container                      0x2000010c   Data         144  object.o(.data)
    rt_object_trytake_hook                   0x200001a4   Data           4  object.o(.data)
    rt_object_take_hook                      0x200001a8   Data           4  object.o(.data)
    rt_object_put_hook                       0x200001ac   Data           4  object.o(.data)
    rt_current_thread                        0x200001b4   Data           4  scheduler.o(.data)
    rt_current_priority                      0x200001b8   Data           1  scheduler.o(.data)
    rt_thread_ready_priority_group           0x200001bc   Data           4  scheduler.o(.data)
    rt_thread_defunct                        0x200001c0   Data           8  scheduler.o(.data)
    rt_interrupt_from_thread                 0x200001e0   Data           4  cpuport.o(.data)
    rt_interrupt_to_thread                   0x200001e4   Data           4  cpuport.o(.data)
    rt_thread_switch_interrupt_flag          0x200001e8   Data           4  cpuport.o(.data)
    finsh_compile_sp                         0x200001f0   Data           4  finsh_compiler.o(.data)
    finsh_compile_pc                         0x200001f4   Data           4  finsh_compiler.o(.data)
    global_errno                             0x20000234   Data           1  finsh_error.o(.data)
    global_sysvar_list                       0x20000240   Data           4  finsh_var.o(.data)
    global_syscall_list                      0x20000244   Data           4  finsh_vm.o(.data)
    finsh_sp                                 0x20000248   Data           4  finsh_vm.o(.data)
    finsh_pc                                 0x2000024c   Data           4  finsh_vm.o(.data)
    shell                                    0x20000250   Data           4  shell.o(.data)
    _syscall_table_begin                     0x20000254   Data           4  symbol.o(.data)
    _syscall_table_end                       0x20000258   Data           4  symbol.o(.data)
    _sysvar_table_begin                      0x2000025c   Data           4  symbol.o(.data)
    _sysvar_table_end                        0x20000260   Data           4  symbol.o(.data)
    NumQ                                     0x20000274   Data          16  algorithm_quaternion.o(.data)
    P                                        0x20000284   Data           4  kalman_filter.o(.data)
    R                                        0x20000288   Data           4  kalman_filter.o(.data)
    Q                                        0x2000028c   Data           4  kalman_filter.o(.data)
    thread_heartbeat                         0x20000490   Data         128  heartbeat.o(.bss)
    ble_rx_buff                              0x20000510   Data         120  bluetooth_4_0.o(.bss)
    thread_ble                               0x20000988   Data         128  bluetooth_4_0.o(.bss)
    Acc                                      0x20000e40   Data          28  mpu9250_app.o(.bss)
    Gyr                                      0x20000e5c   Data          28  mpu9250_app.o(.bss)
    Mag                                      0x20000e78   Data          28  mpu9250_app.o(.bss)
    Ang                                      0x20000e94   Data          28  mpu9250_app.o(.bss)
    thread_mpu9250_app                       0x200012b0   Data         128  mpu9250_app.o(.bss)
    uart1_int_rx                             0x20001330   Data          72  usart.o(.bss)
    uart1_device                             0x20001378   Data          64  usart.o(.bss)
    uart3_int_rx                             0x200013b8   Data          72  usart.o(.bss)
    uart3_device                             0x20001400   Data          64  usart.o(.bss)
    rt_thread_priority_table                 0x20001960   Data         256  scheduler.o(.bss)
    finsh_heap                               0x20001a60   Data         128  finsh_heap.o(.bss)
    global_node_table                        0x20001ae0   Data         320  finsh_node.o(.bss)
    global_variable                          0x20001c20   Data         192  finsh_var.o(.bss)
    finsh_vm_stack                           0x20001ce0   Data         256  finsh_vm.o(.bss)
    text_segment                             0x20001de0   Data         128  finsh_vm.o(.bss)
    DataScope_OutPut_Buffer                  0x200026e0   Data          42  datascope_dp.o(.bss)
    AngE                                     0x2000270c   Data          12  algorithm_quaternion.o(.bss)
    __libspace_start                         0x20002718   Data          96  libspace.o(.bss)
    __temporary_stack_top$libspace           0x20002778   Data           0  libspace.o(.bss)
    Image$$RW_IRAM1$$ZI$$Limit               0x20002d78   Number         0  startup_stm32f4xx.o(STACK)



==============================================================================

Memory Map of the image

  Image Entry point : 0x08000189

  Load Region LR_IROM1 (Base: 0x08000000, Size: 0x00013f34, Max: 0x00080000, ABSOLUTE, COMPRESSED[0x00013d64])

    Execution Region ER_IROM1 (Base: 0x08000000, Size: 0x00013ca4, Max: 0x00080000, ABSOLUTE)

    Base Addr    Size         Type   Attr      Idx    E Section Name        Object

    0x08000000   0x00000188   Data   RO          614    RESET               startup_stm32f4xx.o
    0x08000188   0x00000008   Code   RO         1304  * !!!main             c_w.l(__main.o)
    0x08000190   0x00000034   Code   RO         1630    !!!scatter          c_w.l(__scatter.o)
    0x080001c4   0x0000005a   Code   RO         1628    !!dczerorl2         c_w.l(__dczerorl2.o)
    0x0800021e   0x00000002   PAD
    0x08000220   0x0000001c   Code   RO         1632    !!handler_zi        c_w.l(__scatter_zi.o)
    0x0800023c   0x00000000   Code   RO         1283    .ARM.Collect$$_printf_percent$$00000000  c_w.l(_printf_percent.o)
    0x0800023c   0x00000006   Code   RO         1282    .ARM.Collect$$_printf_percent$$00000003  c_w.l(_printf_f.o)
    0x08000242   0x00000004   Code   RO         1408    .ARM.Collect$$_printf_percent$$00000017  c_w.l(_printf_percent_end.o)
    0x08000246   0x00000006   Code   RO         1506    .ARM.Collect$$libinit$$00000000  c_w.l(libinit.o)
    0x0800024c   0x00000000   Code   RO         1509    .ARM.Collect$$libinit$$00000006  c_w.l(libinit2.o)
    0x0800024c   0x00000000   Code   RO         1511    .ARM.Collect$$libinit$$00000008  c_w.l(libinit2.o)
    0x0800024c   0x00000000   Code   RO         1513    .ARM.Collect$$libinit$$0000000A  c_w.l(libinit2.o)
    0x0800024c   0x00000006   Code   RO         1514    .ARM.Collect$$libinit$$0000000B  c_w.l(libinit2.o)
    0x08000252   0x00000000   Code   RO         1516    .ARM.Collect$$libinit$$0000000D  c_w.l(libinit2.o)
    0x08000252   0x0000000c   Code   RO         1517    .ARM.Collect$$libinit$$0000000E  c_w.l(libinit2.o)
    0x0800025e   0x00000000   Code   RO         1518    .ARM.Collect$$libinit$$0000000F  c_w.l(libinit2.o)
    0x0800025e   0x00000000   Code   RO         1520    .ARM.Collect$$libinit$$00000011  c_w.l(libinit2.o)
    0x0800025e   0x0000000a   Code   RO         1521    .ARM.Collect$$libinit$$00000012  c_w.l(libinit2.o)
    0x08000268   0x00000000   Code   RO         1522    .ARM.Collect$$libinit$$00000013  c_w.l(libinit2.o)
    0x08000268   0x00000000   Code   RO         1524    .ARM.Collect$$libinit$$00000015  c_w.l(libinit2.o)
    0x08000268   0x00000000   Code   RO         1526    .ARM.Collect$$libinit$$00000017  c_w.l(libinit2.o)
    0x08000268   0x00000000   Code   RO         1528    .ARM.Collect$$libinit$$00000019  c_w.l(libinit2.o)
    0x08000268   0x00000000   Code   RO         1530    .ARM.Collect$$libinit$$0000001B  c_w.l(libinit2.o)
    0x08000268   0x00000000   Code   RO         1532    .ARM.Collect$$libinit$$0000001D  c_w.l(libinit2.o)
    0x08000268   0x00000000   Code   RO         1534    .ARM.Collect$$libinit$$0000001F  c_w.l(libinit2.o)
    0x08000268   0x00000000   Code   RO         1536    .ARM.Collect$$libinit$$00000021  c_w.l(libinit2.o)
    0x08000268   0x00000000   Code   RO         1540    .ARM.Collect$$libinit$$00000028  c_w.l(libinit2.o)
    0x08000268   0x00000000   Code   RO         1542    .ARM.Collect$$libinit$$0000002A  c_w.l(libinit2.o)
    0x08000268   0x00000000   Code   RO         1544    .ARM.Collect$$libinit$$0000002C  c_w.l(libinit2.o)
    0x08000268   0x00000000   Code   RO         1546    .ARM.Collect$$libinit$$0000002E  c_w.l(libinit2.o)
    0x08000268   0x00000002   Code   RO         1547    .ARM.Collect$$libinit$$0000002F  c_w.l(libinit2.o)
    0x0800026a   0x00000002   Code   RO         1577    .ARM.Collect$$libshutdown$$00000000  c_w.l(libshutdown.o)
    0x0800026c   0x00000000   Code   RO         1589    .ARM.Collect$$libshutdown$$00000003  c_w.l(libshutdown2.o)
    0x0800026c   0x00000000   Code   RO         1592    .ARM.Collect$$libshutdown$$00000006  c_w.l(libshutdown2.o)
    0x0800026c   0x00000000   Code   RO         1595    .ARM.Collect$$libshutdown$$00000009  c_w.l(libshutdown2.o)
    0x0800026c   0x00000000   Code   RO         1597    .ARM.Collect$$libshutdown$$0000000B  c_w.l(libshutdown2.o)
    0x0800026c   0x00000000   Code   RO         1600    .ARM.Collect$$libshutdown$$0000000E  c_w.l(libshutdown2.o)
    0x0800026c   0x00000002   Code   RO         1601    .ARM.Collect$$libshutdown$$0000000F  c_w.l(libshutdown2.o)
    0x0800026e   0x00000000   Code   RO         1394    .ARM.Collect$$rtentry$$00000000  c_w.l(rtentry.o)
    0x0800026e   0x00000000   Code   RO         1431    .ARM.Collect$$rtentry$$00000002  c_w.l(rtentry2.o)
    0x0800026e   0x00000006   Code   RO         1443    .ARM.Collect$$rtentry$$00000004  c_w.l(rtentry4.o)
    0x08000274   0x00000000   Code   RO         1433    .ARM.Collect$$rtentry$$00000009  c_w.l(rtentry2.o)
    0x08000274   0x00000004   Code   RO         1434    .ARM.Collect$$rtentry$$0000000A  c_w.l(rtentry2.o)
    0x08000278   0x00000000   Code   RO         1436    .ARM.Collect$$rtentry$$0000000C  c_w.l(rtentry2.o)
    0x08000278   0x00000008   Code   RO         1437    .ARM.Collect$$rtentry$$0000000D  c_w.l(rtentry2.o)
    0x08000280   0x00000002   Code   RO         1548    .ARM.Collect$$rtexit$$00000000  c_w.l(rtexit.o)
    0x08000282   0x00000000   Code   RO         1555    .ARM.Collect$$rtexit$$00000002  c_w.l(rtexit2.o)
    0x08000282   0x00000004   Code   RO         1556    .ARM.Collect$$rtexit$$00000003  c_w.l(rtexit2.o)
    0x08000286   0x00000006   Code   RO         1557    .ARM.Collect$$rtexit$$00000004  c_w.l(rtexit2.o)
    0x0800028c   0x00000048   Code   RO            2    .text               application.o
    0x080002d4   0x000000d0   Code   RO          153    .text               startup.o
    0x080003a4   0x000000c0   Code   RO          173    .text               heartbeat.o
    0x08000464   0x00000124   Code   RO          192    .text               bluetooth_4_0.o
    0x08000588   0x00000668   Code   RO          215    .text               mpu9250_app.o
    0x08000bf0   0x000000b0   Code   RO          252    .text               board.o
    0x08000ca0   0x00000604   Code   RO          272    .text               serial.o
    0x080012a4   0x00000040   Code   RO          292    .text               stm32f4xx_it.o
    0x080012e4   0x00000198   Code   RO          309    .text               usart.o
    0x0800147c   0x00000284   Code   RO          332    .text               mpu9250.o
    0x08001700   0x000001fc   Code   RO          349    .text               system_stm32f4xx.o
    0x080018fc   0x000001ec   Code   RO          371    .text               misc.o
    0x08001ae8   0x000013b8   Code   RO          419    .text               stm32f4xx_dma.o
    0x08002ea0   0x0000090a   Code   RO          467    .text               stm32f4xx_gpio.o
    0x080037aa   0x00000002   PAD
    0x080037ac   0x00000d6c   Code   RO          499    .text               stm32f4xx_rcc.o
    0x08004518   0x00000bcc   Code   RO          549    .text               stm32f4xx_spi.o
    0x080050e4   0x00000eb0   Code   RO          597    .text               stm32f4xx_usart.o
    0x08005f94   0x00000040   Code   RO          615    .text               startup_stm32f4xx.o
    0x08005fd4   0x00000064   Code   RO          619    .text               clock.o
    0x08006038   0x00000408   Code   RO          633    .text               device.o
    0x08006440   0x00000168   Code   RO          647    .text               idle.o
    0x080065a8   0x00001a10   Code   RO          667    .text               ipc.o
    0x08007fb8   0x00000048   Code   RO          684    .text               irq.o
    0x08008000   0x000009b4   Code   RO          699    .text               kservice.o
    0x080089b4   0x00000978   Code   RO          716    .text               mem.o
    0x0800932c   0x0000042c   Code   RO          748    .text               mempool.o
    0x08009758   0x00000330   Code   RO          766    .text               object.o
    0x08009a88   0x00000324   Code   RO          786    .text               scheduler.o
    0x08009dac   0x000006a8   Code   RO          807    .text               thread.o
    0x0800a454   0x00000554   Code   RO          824    .text               timer.o
    0x0800a9a8   0x000001b0   Code   RO          843    .text               cpuport.o
    0x0800ab58   0x00000110   Code   RO          859    .text               context_rvds.o
    0x0800ac68   0x00000be8   Code   RO          897    .text               cmd.o
    0x0800b850   0x00001818   Code   RO          920    .text               finsh_compiler.o
    0x0800d068   0x0000002c   Code   RO          957    .text               finsh_error.o
    0x0800d094   0x00000210   Code   RO          973    .text               finsh_heap.o
    0x0800d2a4   0x00000058   Code   RO          989    .text               finsh_init.o
    0x0800d2fc   0x00000184   Code   RO         1007    .text               finsh_node.o
    0x0800d480   0x00000adc   Code   RO         1022    .text               finsh_ops.o
    0x0800df5c   0x0000097c   Code   RO         1040    .text               finsh_parser.o
    0x0800e8d8   0x0000063c   Code   RO         1055    .text               finsh_token.o
    0x0800ef14   0x00000198   Code   RO         1070    .text               finsh_var.o
    0x0800f0ac   0x000000e4   Code   RO         1093    .text               finsh_vm.o
    0x0800f190   0x000009cc   Code   RO         1120    .text               shell.o
    0x0800fb5c   0x00000158   Code   RO         1154    .text               datascope_dp.o
    0x0800fcb4   0x00000344   Code   RO         1173    .text               algorithm_ahrs.o
    0x0800fff8   0x00000408   Code   RO         1211    .text               algorithm_quaternion.o
    0x08010400   0x00000164   Code   RO         1234    .text               kalman_filter.o
    0x08010564   0x00000028   Code   RO         1256    .text               c_w.l(noretval__2sprintf.o)
    0x0801058c   0x00000052   Code   RO         1260    .text               c_w.l(_printf_pad.o)
    0x080105de   0x0000010e   Code   RO         1270    .text               c_w.l(__printf_wp.o)
    0x080106ec   0x0000001a   Code   RO         1284    .text               c_w.l(atoi.o)
    0x08010706   0x0000003e   Code   RO         1286    .text               c_w.l(strlen.o)
    0x08010744   0x00000096   Code   RO         1288    .text               c_w.l(strncmp.o)
    0x080107da   0x0000008a   Code   RO         1290    .text               c_w.l(rt_memcpy_v6.o)
    0x08010864   0x00000064   Code   RO         1292    .text               c_w.l(rt_memcpy_w.o)
    0x080108c8   0x00000044   Code   RO         1294    .text               c_w.l(rt_memclr.o)
    0x0801090c   0x0000004e   Code   RO         1296    .text               c_w.l(rt_memclr_w.o)
    0x0801095a   0x00000056   Code   RO         1298    .text               c_w.l(strncpy.o)
    0x080109b0   0x00000080   Code   RO         1300    .text               c_w.l(strcmpv7m.o)
    0x08010a30   0x00000006   Code   RO         1302    .text               c_w.l(heapauxi.o)
    0x08010a36   0x00000002   PAD
    0x08010a38   0x00000008   Code   RO         1398    .text               c_w.l(rt_errno_addr_intlibspace.o)
    0x08010a40   0x00000016   Code   RO         1400    .text               c_w.l(_rserrno.o)
    0x08010a56   0x00000420   Code   RO         1402    .text               c_w.l(_printf_fp_dec.o)
    0x08010e76   0x00000002   PAD
    0x08010e78   0x00000030   Code   RO         1404    .text               c_w.l(_printf_char_common.o)
    0x08010ea8   0x0000000a   Code   RO         1406    .text               c_w.l(_sputc.o)
    0x08010eb2   0x00000070   Code   RO         1409    .text               c_w.l(strtol.o)
    0x08010f22   0x00000002   PAD
    0x08010f24   0x00000008   Code   RO         1427    .text               c_w.l(libspace.o)
    0x08010f2c   0x00000010   Code   RO         1445    .text               c_w.l(rt_ctype_table.o)
    0x08010f3c   0x00000008   Code   RO         1450    .text               c_w.l(rt_locale_intlibspace.o)
    0x08010f44   0x0000008a   Code   RO         1452    .text               c_w.l(lludiv10.o)
    0x08010fce   0x00000002   PAD
    0x08010fd0   0x00000080   Code   RO         1454    .text               c_w.l(_printf_fp_infnan.o)
    0x08011050   0x0000009e   Code   RO         1458    .text               c_w.l(_strtoul.o)
    0x080110ee   0x00000002   PAD
    0x080110f0   0x000000e4   Code   RO         1460    .text               c_w.l(bigflt0.o)
    0x080111d4   0x0000004a   Code   RO         1492    .text               c_w.l(sys_stackheap_outer.o)
    0x0801121e   0x0000001c   Code   RO         1494    .text               c_w.l(_chval.o)
    0x0801123a   0x0000000c   Code   RO         1499    .text               c_w.l(exit.o)
    0x08011246   0x00000002   PAD
    0x08011248   0x0000000c   Code   RO         1567    .text               c_w.l(sys_exit.o)
    0x08011254   0x00000002   Code   RO         1578    .text               c_w.l(use_no_semi.o)
    0x08011256   0x00000000   Code   RO         1580    .text               c_w.l(indicate_semi.o)
    0x08011256   0x0000003e   Code   RO         1463    CL$$btod_d2e        c_w.l(btod.o)
    0x08011294   0x00000046   Code   RO         1465    CL$$btod_d2e_denorm_low  c_w.l(btod.o)
    0x080112da   0x00000060   Code   RO         1464    CL$$btod_d2e_norm_op1  c_w.l(btod.o)
    0x0801133a   0x00000338   Code   RO         1473    CL$$btod_div_common  c_w.l(btod.o)
    0x08011672   0x000000c6   Code   RO         1470    CL$$btod_e2e        c_w.l(btod.o)
    0x08011738   0x00000028   Code   RO         1467    CL$$btod_ediv       c_w.l(btod.o)
    0x08011760   0x00000028   Code   RO         1466    CL$$btod_emul       c_w.l(btod.o)
    0x08011788   0x00000244   Code   RO         1472    CL$$btod_mult_common  c_w.l(btod.o)
    0x080119cc   0x00000030   Code   RO         1490    i.__ARM_fpclassify  m_wm.l(fpclassify.o)
    0x080119fc   0x00000026   Code   RO         1420    i.__ARM_fpclassifyf  m_wm.l(fpclassifyf.o)
    0x08011a22   0x00000002   PAD
    0x08011a24   0x00000124   Code   RO         1334    i.__hardfp_asinf    m_wm.l(asinf.o)
    0x08011b48   0x00000248   Code   RO         1346    i.__hardfp_atan2f   m_wm.l(atan2f.o)
    0x08011d90   0x00000160   Code   RO         1358    i.__hardfp_cosf     m_wm.l(cosf.o)
    0x08011ef0   0x00000178   Code   RO         1370    i.__hardfp_sinf     m_wm.l(sinf.o)
    0x08012068   0x0000003a   Code   RO         1382    i.__hardfp_sqrtf    m_wm.l(sqrtf.o)
    0x080120a2   0x00000002   PAD
    0x080120a4   0x00000010   Code   RO         1422    i.__mathlib_flt_underflow  m_wm.l(funder.o)
    0x080120b4   0x00000140   Code   RO         1424    i.__mathlib_rredf2  m_wm.l(rredf.o)
    0x080121f4   0x0000000e   Code   RO         1272    i._is_digit         c_w.l(__printf_wp.o)
    0x08012202   0x0000003e   Code   RO         1384    i.sqrtf             m_wm.l(sqrtf.o)
    0x08012240   0x0000002c   Code   RO         1486    locale$$code        c_w.l(lc_numeric_c.o)
    0x0801226c   0x0000002c   Code   RO         1497    locale$$code        c_w.l(lc_ctype_c.o)
    0x08012298   0x00000062   Code   RO         1306    x$fpl$d2f           fz_wm.l(d2f.o)
    0x080122fa   0x00000002   PAD
    0x080122fc   0x00000150   Code   RO         1308    x$fpl$dadd          fz_wm.l(daddsub_clz.o)
    0x0801244c   0x000002b0   Code   RO         1315    x$fpl$ddiv          fz_wm.l(ddiv.o)
    0x080126fc   0x0000005e   Code   RO         1318    x$fpl$dfix          fz_wm.l(dfix.o)
    0x0801275a   0x0000002e   Code   RO         1323    x$fpl$dflt          fz_wm.l(dflt_clz.o)
    0x08012788   0x00000154   Code   RO         1328    x$fpl$dmul          fz_wm.l(dmul.o)
    0x080128dc   0x0000009c   Code   RO         1411    x$fpl$dnaninf       fz_wm.l(dnaninf.o)
    0x08012978   0x0000000c   Code   RO         1413    x$fpl$dretinf       fz_wm.l(dretinf.o)
    0x08012984   0x000001d4   Code   RO         1310    x$fpl$dsub          fz_wm.l(daddsub_clz.o)
    0x08012b58   0x00000056   Code   RO         1330    x$fpl$f2d           fz_wm.l(f2d.o)
    0x08012bae   0x0000008c   Code   RO         1415    x$fpl$fnaninf       fz_wm.l(fnaninf.o)
    0x08012c3a   0x0000000a   Code   RO         1552    x$fpl$fpinit        fz_wm.l(fpinit.o)
    0x08012c44   0x0000000a   Code   RO         1417    x$fpl$fretinf       fz_wm.l(fretinf.o)
    0x08012c4e   0x00000004   Code   RO         1332    x$fpl$printf1       fz_wm.l(printf1.o)
    0x08012c52   0x00000000   Code   RO         1419    x$fpl$usenofp       fz_wm.l(usenofp.o)
    0x08012c52   0x00000085   Data   RO          273    .constdata          serial.o
    0x08012cd7   0x00000001   PAD
    0x08012cd8   0x0000001c   Data   RO          333    .constdata          mpu9250.o
    0x08012cf4   0x000000a8   Data   RO          634    .constdata          device.o
    0x08012d9c   0x00000016   Data   RO          649    .constdata          idle.o
    0x08012db2   0x000001d7   Data   RO          668    .constdata          ipc.o
    0x08012f89   0x00000122   Data   RO          701    .constdata          kservice.o
    0x080130ab   0x00000001   PAD
    0x080130ac   0x00000160   Data   RO          718    .constdata          mem.o
    0x0801320c   0x0000003e   Data   RO          749    .constdata          mempool.o
    0x0801324a   0x0000005e   Data   RO          767    .constdata          object.o
    0x080132a8   0x0000004e   Data   RO          788    .constdata          scheduler.o
    0x080132f6   0x000000aa   Data   RO          808    .constdata          thread.o
    0x080133a0   0x0000005c   Data   RO          825    .constdata          timer.o
    0x080133fc   0x00000013   Data   RO          844    .constdata          cpuport.o
    0x0801340f   0x00000001   PAD
    0x08013410   0x00000293   Data   RO          898    .constdata          cmd.o
    0x080136a3   0x00000001   PAD
    0x080136a4   0x000000c4   Data   RO         1023    .constdata          finsh_ops.o
    0x08013768   0x00000040   Data   RO         1056    .constdata          finsh_token.o
    0x080137a8   0x00000060   Data   RO         1122    .constdata          shell.o
    0x08013808   0x00000020   Data   RO         1425    .constdata          m_wm.l(rredf.o)
    0x08013828   0x00000094   Data   RO         1461    .constdata          c_w.l(bigflt0.o)
    0x080138bc   0x000000e9   Data   RO          899    .conststring        cmd.o
    0x080139a5   0x000000d8   Data   RO          958    .conststring        finsh_error.o
    0x08013a7d   0x0000002c   Data   RO         1057    .conststring        finsh_token.o
    0x08013aa9   0x00000003   PAD
    0x08013aac   0x0000000c   Data   RO          720    FSymTab             mem.o
    0x08013ab8   0x00000090   Data   RO          901    FSymTab             cmd.o
    0x08013b48   0x00000020   Data   RO         1626    Region$$Table       anon$$obj.o
    0x08013b68   0x00000010   Data   RO          902    VSymTab             cmd.o
    0x08013b78   0x0000001c   Data   RO         1485    locale$$data        c_w.l(lc_numeric_c.o)
    0x08013b94   0x00000110   Data   RO         1496    locale$$data        c_w.l(lc_ctype_c.o)


    Execution Region RW_IRAM1 (Base: 0x20000000, Size: 0x00002d78, Max: 0x00020000, ABSOLUTE, COMPRESSED[0x000000c0])

    Base Addr    Size         Type   Attr      Idx    E Section Name        Object

    0x20000000   0x00000088   Data   RW          194    .data               bluetooth_4_0.o
    0x20000088   0x00000008   Data   RW          217    .data               mpu9250_app.o
    0x20000090   0x0000001c   Data   RW          311    .data               usart.o
    0x200000ac   0x00000014   Data   RW          350    .data               system_stm32f4xx.o
    0x200000c0   0x00000010   Data   RW          500    .data               stm32f4xx_rcc.o
    0x200000d0   0x00000004   Data   RW          620    .data               clock.o
    0x200000d4   0x00000004   Data   RW          650    .data               idle.o
    0x200000d8   0x00000001   Data   RW          685    .data               irq.o
    0x200000d9   0x00000003   PAD
    0x200000dc   0x00000008   Data   RW          702    .data               kservice.o
    0x200000e4   0x00000020   Data   RW          719    .data               mem.o
    0x20000104   0x00000008   Data   RW          750    .data               mempool.o
    0x2000010c   0x000000a4   Data   RW          768    .data               object.o
    0x200001b0   0x0000001c   Data   RW          789    .data               scheduler.o
    0x200001cc   0x00000010   Data   RW          826    .data               timer.o
    0x200001dc   0x00000010   Data   RW          845    .data               cpuport.o
    0x200001ec   0x00000004   Data   RW          900    .data               cmd.o
    0x200001f0   0x00000008   Data   RW          921    .data               finsh_compiler.o
    0x200001f8   0x0000003d   Data   RW          959    .data               finsh_error.o
    0x20000235   0x00000003   PAD
    0x20000238   0x00000008   Data   RW          975    .data               finsh_heap.o
    0x20000240   0x00000004   Data   RW         1072    .data               finsh_var.o
    0x20000244   0x0000000c   Data   RW         1095    .data               finsh_vm.o
    0x20000250   0x00000004   Data   RW         1123    .data               shell.o
    0x20000254   0x00000010   Data   RW         1141    .data               symbol.o
    0x20000264   0x00000010   Data   RW         1174    .data               algorithm_ahrs.o
    0x20000274   0x00000010   Data   RW         1213    .data               algorithm_quaternion.o
    0x20000284   0x0000000c   Data   RW         1235    .data               kalman_filter.o
    0x20000290   0x00000280   Zero   RW          174    .bss                heartbeat.o
    0x20000510   0x0000092c   Zero   RW          193    .bss                bluetooth_4_0.o
    0x20000e3c   0x00000004   PAD
    0x20000e40   0x000004f0   Zero   RW          216    .bss                mpu9250_app.o
    0x20001330   0x00000110   Zero   RW          310    .bss                usart.o
    0x20001440   0x00000480   Zero   RW          648    .bss                idle.o
    0x200018c0   0x00000080   Zero   RW          700    .bss                kservice.o
    0x20001940   0x00000020   Zero   RW          717    .bss                mem.o
    0x20001960   0x00000100   Zero   RW          787    .bss                scheduler.o
    0x20001a60   0x00000080   Zero   RW          974    .bss                finsh_heap.o
    0x20001ae0   0x00000140   Zero   RW         1008    .bss                finsh_node.o
    0x20001c20   0x000000c0   Zero   RW         1071    .bss                finsh_var.o
    0x20001ce0   0x00000180   Zero   RW         1094    .bss                finsh_vm.o
    0x20001e60   0x00000880   Zero   RW         1121    .bss                shell.o
    0x200026e0   0x0000002a   Zero   RW         1155    .bss                datascope_dp.o
    0x2000270a   0x00000002   PAD
    0x2000270c   0x0000000c   Zero   RW         1212    .bss                algorithm_quaternion.o
    0x20002718   0x00000060   Zero   RW         1428    .bss                c_w.l(libspace.o)
    0x20002778   0x00000200   Zero   RW          613    HEAP                startup_stm32f4xx.o
    0x20002978   0x00000400   Zero   RW          612    STACK               startup_stm32f4xx.o


==============================================================================

Image component sizes


      Code (inc. data)   RO Data    RW Data    ZI Data      Debug   Object Name

       836         74          0         16          0       2458   algorithm_ahrs.o
      1032          6          0         16         12       3333   algorithm_quaternion.o
        72          8          0          0          0     268739   application.o
       292         66          0        136       2348       2535   bluetooth_4_0.o
       176         18          0          0          0      19283   board.o
       100          6          0          4          0       1560   clock.o
      3048       1194       1052          4          0      10755   cmd.o
       272         24          0          0          0        784   context_rvds.o
       432        220         19         16          0       3727   cpuport.o
       344         28          0          0         42       2054   datascope_dp.o
      1032        166        168          0          0       5537   device.o
      6168        154          0          8          0      10602   finsh_compiler.o
        44         10        216         61          0       1649   finsh_error.o
       528         18          0          8        128       3375   finsh_heap.o
        88          6          0          0          0       1628   finsh_init.o
       388          4          0          0        320       3400   finsh_node.o
      2780         36        196          0          0       8776   finsh_ops.o
      2428         32          0          0          0       9717   finsh_parser.o
      1596         16        108          0          0       5944   finsh_token.o
       408         16          0          4        192       7137   finsh_var.o
       228         34          0         12        384       6730   finsh_vm.o
       192         30          0          0        640       1531   heartbeat.o
       360        106         22          4       1152       2819   idle.o
      6672        464        471          0          0      23215   ipc.o
        72          6          0          1          0       1334   irq.o
       356         22          0         12          0       1401   kalman_filter.o
      2484        168        290          8        128      11264   kservice.o
      2424        586        364         32         32      11418   mem.o
      1068        116         62          8          0       5390   mempool.o
       492         72          0          0          0       2117   misc.o
       644         44         28          0          0       3249   mpu9250.o
      1640        282          0          8       1264       3709   mpu9250_app.o
       816        186         94        164          0       6008   object.o
       804        182         78         28        256       4813   scheduler.o
      1540        296        133          0          0       5817   serial.o
      2508        308         96          4       2176       6195   shell.o
       208         98          0          0          0       1355   startup.o
        64         26        392          0       1536        884   startup_stm32f4xx.o
      5048        350          0          0          0       9041   stm32f4xx_dma.o
      2314        134          0          0          0       5501   stm32f4xx_gpio.o
        64          8          0          0          0       1403   stm32f4xx_it.o
      3436        262          0         16          0      13599   stm32f4xx_rcc.o
      3020        116          0          0          0       8633   stm32f4xx_spi.o
      3760        162          0          0          0      10172   stm32f4xx_usart.o
         0          0          0         16          0       4085   symbol.o
       508         44          0         20          0       1999   system_stm32f4xx.o
      1704        244        170          0          0       8390   thread.o
      1364        150         92         16          0       7945   timer.o
       408         50          0         28        272       2537   usart.o

    ----------------------------------------------------------------------
     66264       6648       4090        656      10888     545547   Object Totals
         0          0         32          0          0          0   (incl. Generated)
         2          0          7          6          6          0   (incl. Padding)

    ----------------------------------------------------------------------

      Code (inc. data)   RO Data    RW Data    ZI Data      Debug   Library Member Name

        90          0          0          0          0          0   __dczerorl2.o
         8          0          0          0          0         68   __main.o
       284          0          0          0          0        156   __printf_wp.o
        52          8          0          0          0          0   __scatter.o
        28          0          0          0          0          0   __scatter_zi.o
        28          0          0          0          0         68   _chval.o
        48          6          0          0          0         96   _printf_char_common.o
         6          0          0          0          0          0   _printf_f.o
      1056          0          0          0          0        216   _printf_fp_dec.o
       128         16          0          0          0         84   _printf_fp_infnan.o
        82          0          0          0          0        108   _printf_pad.o
         0          0          0          0          0          0   _printf_percent.o
         4          0          0          0          0          0   _printf_percent_end.o
        22          0          0          0          0        100   _rserrno.o
        10          0          0          0          0         68   _sputc.o
       158          0          0          0          0         92   _strtoul.o
        26          0          0          0          0         80   atoi.o
       228          6        148          0          0         96   bigflt0.o
      1910        128          0          0          0        672   btod.o
        12          0          0          0          0         72   exit.o
         6          0          0          0          0        152   heapauxi.o
         0          0          0          0          0          0   indicate_semi.o
        44         10        272          0          0         76   lc_ctype_c.o
        44         10         28          0          0         76   lc_numeric_c.o
         6          0          0          0          0          0   libinit.o
        30          0          0          0          0          0   libinit2.o
         2          0          0          0          0          0   libshutdown.o
         2          0          0          0          0          0   libshutdown2.o
         8          4          0          0         96         68   libspace.o
       138          0          0          0          0         80   lludiv10.o
        40          6          0          0          0         84   noretval__2sprintf.o
        16          4          0          0          0         76   rt_ctype_table.o
         8          4          0          0          0         68   rt_errno_addr_intlibspace.o
         8          4          0          0          0         68   rt_locale_intlibspace.o
        68          0          0          0          0         68   rt_memclr.o
        78          0          0          0          0         80   rt_memclr_w.o
       138          0          0          0          0         68   rt_memcpy_v6.o
       100          0          0          0          0         80   rt_memcpy_w.o
         0          0          0          0          0          0   rtentry.o
        12          0          0          0          0          0   rtentry2.o
         6          0          0          0          0          0   rtentry4.o
         2          0          0          0          0          0   rtexit.o
        10          0          0          0          0          0   rtexit2.o
       128          0          0          0          0         68   strcmpv7m.o
        62          0          0          0          0         76   strlen.o
       150          0          0          0          0         80   strncmp.o
        86          0          0          0          0         76   strncpy.o
       112          0          0          0          0         88   strtol.o
        12          4          0          0          0         68   sys_exit.o
        74          0          0          0          0         80   sys_stackheap_outer.o
         2          0          0          0          0         68   use_no_semi.o
        98          4          0          0          0        140   d2f.o
       804         16          0          0          0        376   daddsub_clz.o
       688        140          0          0          0        260   ddiv.o
        94          4          0          0          0        140   dfix.o
        46          0          0          0          0        116   dflt_clz.o
       340         12          0          0          0        152   dmul.o
       156          4          0          0          0        140   dnaninf.o
        12          0          0          0          0        116   dretinf.o
        86          4          0          0          0        132   f2d.o
       140          4          0          0          0        132   fnaninf.o
        10          0          0          0          0        116   fpinit.o
        10          0          0          0          0        116   fretinf.o
         4          0          0          0          0        116   printf1.o
         0          0          0          0          0          0   usenofp.o
       292         42          0          0          0        180   asinf.o
       584         98          0          0          0        176   atan2f.o
       352         66          0          0          0        140   cosf.o
        48          0          0          0          0        124   fpclassify.o
        38          0          0          0          0        116   fpclassifyf.o
        16          6          0          0          0        116   funder.o
       320         26         32          0          0        160   rredf.o
       376         62          0          0          0        160   sinf.o
       120          0          0          0          0        272   sqrtf.o

    ----------------------------------------------------------------------
     10226        698        480          0         96       7120   Library Totals
        20          0          0          0          0          0   (incl. Padding)

    ----------------------------------------------------------------------

      Code (inc. data)   RO Data    RW Data    ZI Data      Debug   Library Name

      5572        210        448          0         96       3624   c_w.l
      2488        188          0          0          0       2052   fz_wm.l
      2146        300         32          0          0       1444   m_wm.l

    ----------------------------------------------------------------------
     10226        698        480          0         96       7120   Library Totals

    ----------------------------------------------------------------------

==============================================================================


      Code (inc. data)   RO Data    RW Data    ZI Data      Debug   

     76490       7346       4570        656      10984     539983   Grand Totals
     76490       7346       4570        192      10984     539983   ELF Image Totals (compressed)
     76490       7346       4570        192          0          0   ROM Totals

==============================================================================

    Total RO  Size (Code + RO Data)                81060 (  79.16kB)
    Total RW  Size (RW Data + ZI Data)             11640 (  11.37kB)
    Total ROM Size (Code + RO Data + RW Data)      81252 (  79.35kB)

==============================================================================

